ah:_glClearStencil
tM:__ZN18btDbvtTreeCollider7ProcessEPK10btDbvtNodeS2_
Q3:__ZN8dmScript17ResolveInInstanceEP9lua_Statei
kZa:___get_locale
vka:__ZN5dmHID22SetGamepadConnectivityEPNS_7ContextEib
vX:__ZN16b2ContactManager7CollideEv
go:__ZN12dmGameObject24DestroyPropertyContainerEPNS_17PropertyContainerE
lz:__ZN12dmGameSystem16CreateVertexDataEPNS_13TileGridWorldEPNS_14TileGridVertexEPNS_18TextureSetResourceEPN8dmRender15RenderListEntryEPjS9_
VC:__ZN12dmGameSystem24ParticleFX_ResetConstantEP9lua_State
bla:__ZN7dmInput13UpdateBindingEPNS_7BindingEf
Fka:__ZN5dmHIDL17CharacterCallbackEii
pPa:_ccm_aes_setkey_wrap
aj:_pthread_attr_init
XO:__ZN28btCompoundCollisionAlgorithm10CreateFunc24CreateCollisionAlgorithmER36btCollisionAlgorithmConstructionInfoP17btCollisionObjectS4_
iNa:_mbedtls_asn1_get_bitstring_null
Em:__ZN12dmGameObject3NewEPNS_16CollectionHandleEPKc
NPa:_mbedtls_des3_crypt_ecb
Bta:_EmitRescaledAlphaRGB
$Ta:_ssl_generate_random
Rua:_LD4
UIa:_mbedtls_sha1_init
VZa:__ZdlPv
K$:__ZN8dmRender19FinalizeTextContextEPNS_13RenderContextE
MOa:_chacha20_stream_wrap
dm:__ZN12dmGameObject10CollectionD2Ev
DE:__GLOBAL__sub_I_sprite_ddf_cpp
Ky:__ZN12dmGameSystemL27UpdateCurrentAnimationFrameEPNS_15SpriteComponentE
xya:__ZNSt3__27__sort4IRN5dmGui19RenderEntrySortPredEPNS1_11RenderEntryEEEjT0_S6_S6_S6_T_
Z5:__ZN8dmScript8CheckURLEP9lua_Statei
GDa:__ZN7dmCrash4InitEPKcS1_
mQa:_mbedtls_ecdh_calc_secret
s2a:_emscripten_glDeleteBuffers__wrapper
JX:__ZN9b2Fixture14DestroyProxiesEP12b2BroadPhase
Rva:_WebPRescalerExportRow
P4a:_emscripten_glGetActiveUniformBlockiv__wrapper
mDa:__ZN5dmGuiL11LuaPushNodeEP9lua_StatePNS_5SceneEj
Eza:__ZN5dmGui17SetNodeSpineSceneEPNS_5SceneEjPKcyyb
d4:__ZN8dmScript15InitializeBitopEP9lua_State
Bd:_emscripten_glFlush
eta:__ZN16dmConnectionPool13GetReuseCountEPNS_14ConnectionPoolEj
_L:__ZN15btNullPairCache28setInternalGhostPairCallbackEP25btOverlappingPairCallback
EUa:_mbedtls_asn1_write_tag
Bda:_luaF_close
rGa:_AudioDecoderWav
m$a:dynCall_fiiiiiiiiiii
Td:_emscripten_glGetAttribLocation
qU:__ZN23btConvexConvexAlgorithm22getAllContactManifoldsER20btAlignedObjectArrayIP20btPersistentManifoldE
lca:_lua_pushfstring
Jya:__ZN5dmGui15DispatchMessageEPNS_5SceneEPN9dmMessage7MessageE
tRa:_mbedtls_ecp_mul
MHa:_eckey_sign_wrap
Tq:__ZN5dmDDF11InputBuffer4SkipEj
OD:__ZN12dmGameSystem16SpineComp_CancelEP9lua_State
AK:__ZN23btDiscreteDynamicsWorld21updateActivationStateEf
oEa:__ZN7dmCrash10WriteCrashEPKcPNS_8AppStateE
bI:__ZN9dmPhysics17NewCapsuleShape3DEPNS_9Context3DEff
EL:__ZN20btAxisSweep3InternalItE11sortMinDownEitP12btDispatcherb
Oja:_gmatch_aux
m_a:__ZNK10__cxxabiv120__si_class_type_info16search_above_dstEPNS_19__dynamic_cast_infoEPKvS4_ib
ks:__ZN11dmHashTableIyPKcE3PutEyRKS1_
ffa:_luaV_equalval
Xu:__ZN12dmGameSystem29CompCollisionObjectPostUpdateERKN12dmGameObject26ComponentsPostUpdateParamsE
bN:__ZN28btHashedOverlappingPairCache10growTablesEv
Vp:__ZN11dmHashTableImtE11SetCapacityEjj
JE:__ZN12dmGameSystem19SetMaterialConstantEPN8dmRender8MaterialEyRKN12dmGameObject11PropertyVarEPFvPvyPjS6_ES7_
HL:__ZN20btAxisSweep3InternalItE11sortMaxDownEitP12btDispatcherb
kc:_emscripten_glBeginTransformFeedback
XHa:_mbedtls_pk_parse_subpubkey
Uha:_luaopen_io
CX:__ZNSt3__27__sort4IRPFbRK6b2PairS3_EPS1_EEjT0_S8_S8_S8_T_
TR:__ZNK13btSphereShape7getAabbERK11btTransformR9btVector3S4_
Tca:_lua_gethookcount
gBa:__ZN5dmGui11LuaGetScaleEP9lua_State
aa:invoke_fiiiii
Wl:__ZN11dmHashTableIyPN12dmGameObject8InstanceEE11SetCapacityEjj
id:_emscripten_glDepthRange
lxa:_DoHorizontalFilter
Lya:__ZN5dmGui11ReloadSceneEPNS_5SceneE
ANa:_mbedtls_mpi_size
Vba:_lua_rawequal
wWa:_strtoul
ZXa:_fopen
Pqa:__ZN9dmProfile11InternalizeEPKcjj
pR:__ZNK17btConvexHullShape11getNumEdgesEv
I6:__ZN8dmScript21TimerFinalizeInstanceEPNS_11ScriptWorldE
V2:__ZN8dmScript10InitializeEPNS_7ContextE
uta:_VP8GetThreadMethod
eV:__ZNK13b2CircleShape11ComputeMassEP10b2MassDataf
ija:_tconcat
Nfa:_luaL_addvalue
YL:__ZN15btNullPairCache8findPairEP17btBroadphaseProxyS1_
uN:__ZN21btCollisionDispatcher19defaultNearCallbackER16btBroadphasePairRS_RK16btDispatcherInfo
hoa:_dmHashFinal64
Su:__ZN12dmGameSystem21TriggerExitedCallbackERKN9dmPhysics11TriggerExitEPv
RB:__ZN12dmGameSystem17ResTextureDestroyERKN10dmResource21ResourceDestroyParamsE
XH:__ZN16btCollisionWorld17RayResultCallbackD2Ev
O1a:_emscripten_glFrontFace__wrapper
tN:__ZN21btCollisionDispatcherC2EP24btCollisionConfiguration
ATa:_ssl_write_certificate_verify
I:Math_atan2
yC:__ZN12dmGameSystem16FactoryComp_LoadEP9lua_State
MNa:_mbedtls_mpi_mul_mpi
FZ:__ZN13b2PulleyJoint24SolvePositionConstraintsERK12b2SolverData
$La:_mbedtls_ssl_sig_from_pk
UL:__ZNK15btNullPairCache22getNumOverlappingPairsEv
nm:__ZN12dmGameObjectL26InsertInstanceInLevelIndexEPNS_10CollectionEPNS_8InstanceE
v8:__ZN8dmScript12Zlib_DeflateEP9lua_State
Dpa:__ZL22stbi__resample_row_h_2PhS_S_ii
lg:_emscripten_glVertexAttribI2uiv
CJa:_ssl_calc_verify_tls_sha384
hx:__ZN12dmGameSystem15CompModelRenderERKN12dmGameObject22ComponentsRenderParamsE
qp:__ZN12dmGameObject12ReloadScriptEPNS_6ScriptEPN8dmLuaDDF9LuaModuleE
q7:__ZN8dmScriptL6LengthEP9lua_State
WCa:__ZN5dmGuiL14LuaSetTrackingEP9lua_State
a5a:_emscripten_glRenderbufferStorageMultisample__wrapper
JXa:_shutdown
_Aa:__ZN5dmGui15LuaCurveReleaseEPN8dmEasing5CurveE
_Xa:___fmodeflags
iZa:_select
M$a:dynCall_viffff
x6:__ZN8dmScript13NewTimerWorldEv
Ar:__ZN5dmDDF11LoadContext9GetOffsetEPv
H$a:dynCall_vfi
Zq:__ZN5dmDDF11InputBuffer11ReadFixed64EPy
pBa:__ZN5dmGui14LuaSetRotationEP9lua_State
Zea:_luaU_undump
LY:__ZN9b2Contact6UpdateEP17b2ContactListener
Rba:_lua_iscfunction
XYa:_strcoll
$D:__ZN12dmGameSystem24SpriteComp_ResetConstantEP9lua_State
CK:__ZZN23btDiscreteDynamicsWorld16solveConstraintsER19btContactSolverInfoEN27InplaceSolverIslandCallback18processConstraintsEv
aJ:__ZN9dmPhysics11DebugDraw3D12setDebugModeEi
kna:__ZN12dmConfigFileL22LoadFromBufferInternalEPKcS1_jiPS1_PPNS_6ConfigE
X4:__ZN8dmScriptL24InternalUpdateExtensionsEPNS_7ContextE
Lka:__ZN5dmHID12ShowKeyboardEPNS_7ContextENS_12KeyboardTypeEb
Oy:__ZN12dmGameSystem16CompSpriteUpdateERKN12dmGameObject22ComponentsUpdateParamsERNS0_22ComponentsUpdateResultE
Gv:__ZN12dmGameSystem20CompFactoryGetStatusEPNS_16FactoryComponentE
Cca:_lua_setfenv
YSa:_oid_sig_alg_from_asn1
gF:__ZN10dmGraphics14GetWindowStateEPNS_7ContextENS_11WindowStateE
tma:__ZN5dmRigL9DoAnimateEPNS_10RigContextEPNS_11RigInstanceEf
rWa:_poll
iaa:_socket_gaistrerror
EN:__ZN16btCollisionWorldD2Ev
HS:__ZN15btTriangleShapeD0Ev
Ps:__ZN10dmResource12GetLoadMutexEPNS_16SResourceFactoryE
zP:__ZN32btSphereSphereCollisionAlgorithm16processCollisionEP17btCollisionObjectS1_RK16btDispatcherInfoP16btManifoldResult
iO:__ZThn4_N17DebugDrawcallbackD1Ev
e_a:__ZNK10__cxxabiv117__class_type_info16search_below_dstEPNS_19__dynamic_cast_infoEPKvib
Qja:_luaopen_package
GR:__ZNK13btConvexShape31localGetSupportVertexNonVirtualERK9btVector3
YA:__ZN12dmGameSystem16AcquireResourcesEPN10dmResource16SResourceFactoryEPKvjPN10dmParticle9PrototypeEPKc
o4a:_emscripten_glBufferSubData__wrapper
vI:__ZN9dmPhysics12SetGravity3DEPNS_7World3DERKN10Vectormath3Aos7Vector3E
YEa:__ZN7dmSoundL23MixResampleIdentityMonoIhLi128ELi255EEEvPKNS_10MixContextEPNS_13SoundInstanceEjjPfj
ZZ:__ZN12b2WheelJoint23InitVelocityConstraintsERK12b2SolverData
NWa:_vfprintf
nLa:_mbedtls_ssl_optimize_checksum
$w:__ZN12dmObjectPoolIPN12dmGameSystem14ModelComponentEE4FreeEjb
Mha:_db_setfenv
mL:__ZN20btAxisSweep3InternalItEC2ERK9btVector3S3_tttP22btOverlappingPairCacheb
WI:__ZN12btIDebugDraw10drawSphereERK9btVector3fS2_
tsa:_deflateInit_
mU:__ZN23btConvexConvexAlgorithmD2Ev
LB:__ZN12dmGameSystem16AcquireResourcesEPN10dmResource19SResourceDescriptorEPN10dmGraphics7ContextEPNS_9ImageDescEPNS3_7TextureEPS9_
q4:__ZN8dmScript14SetStreamValueIxEEvPvid
vSa:_sha1_starts_wrap
PP:__ZN22SphereTriangleDetectorD0Ev
Oi:_llvm_ceil_f64
XR:__ZNK13btSphereShape9getMarginEv
hU:__ZN24btConvexTriangleCallback15processTriangleEP9btVector3ii
P_a:___udivdi3
rA:__ZN12dmGameSystem20ResRecreateGuiScriptERKN10dmResource22ResourceRecreateParamsE
DX:__ZNSt3__218__insertion_sort_3IRPFbRK6b2PairS3_EPS1_EEvT0_S8_T_
Xea:_luaT_gettm
dt:__ZN17dmResourceArchive4ReadEPNS_21ArchiveIndexContainerEPNS_9EntryDataEPv
hR:__ZNK17btConvexHullShape7getNameEv
vF:__ZN10dmGraphics18DeleteVertexBufferEm
nma:__ZN5dmRig15CancelAnimationEPNS_11RigInstanceE
Mk:setTempRet0
mI:__ZN9dmPhysics20GetAngularVelocity3DEPNS_9Context3DEPv
zV:__ZN11b2GridShape17CalculateCellMaskEP9b2Fixturejj
ts:__ZN10dmResourceL16LoadFromManifestEPKNS_8ManifestEPKcPjP7dmArrayIcE
k8:__ZN8dmScript11CheckVectorEP9lua_Statei
$ja:_ll_seeall
iEa:__ZN7dmCrash12SetLoadAddrsEPNS_8AppStateE
ay:__ZN12dmGameSystemL18OnResourceReloadedEPNS_15SpineModelWorldEPNS_19SpineModelComponentEi
qea:_field
WN:__ZZN16btCollisionWorld13rayTestSingleERK11btTransformS2_P17btCollisionObjectPK16btCollisionShapeS2_RNS_17RayResultCallbackEEN15LocalInfoAdder2D0Ev
Eg:_emscripten_set_main_loop
pFa:__ZN7dmSound16SetInstanceGroupEPNS_13SoundInstanceEy
uP:__ZN25btSimulationIslandManager12buildIslandsEP12btDispatcherP16btCollisionWorld
Z_a:_memmove
$Ka:_mbedtls_ssl_write_certificate
nga:_luaK_dischargevars
mUa:_mbedtls_x509_get_alg_null
NYa:_strrchr
PFa:_stb_vorbis_get_info
Dh:_glGetActiveUniform
s_a:__ZSt9terminatev
xpa:__ZL23stbi__jpeg_decode_blockP10stbi__jpegPsP13stbi__huffmanS3_S1_iPt
iqa:__ZN9dmMessage13IsSocketValidEy
OC:__ZN12dmGameSystem19ScriptModelRegisterERKNS_16ScriptLibContextE
rUa:_x509_get_attr_type_value
HOa:_mbedtls_cipher_auth_encrypt
MO:__ZN26btBoxBoxCollisionAlgorithm10CreateFuncD0Ev
TQ:__ZNK15btCompoundShape15getLocalScalingEv
KF:__ZN10dmGraphicsL12CreateShaderEjPKvj
THa:_eckeydh_can_do
ira:__ZN8dmSocket7ReceiveEiPviPi
zk:FUNCTION_TABLE_viiiiif
aw:__ZN12dmGameSystem13CompGuiUpdateERKN12dmGameObject22ComponentsUpdateParamsERNS0_22ComponentsUpdateResultE
BN:__ZN17btCollisionObjectC2Ev
Ak:FUNCTION_TABLE_viiiiii
Ej:FUNCTION_TABLE_fi
Br:__ZN5dmDDF11LoadContext10GetPointerEj
VQ:__ZNK15btCompoundShape7getNameEv
cxa:_VP8FiltersInit
VB:__ZN12dmGameSystem20ResTextureSetPreloadERKN10dmResource21ResourcePreloadParamsE
RDa:__ZN7dmCrash5PurgeEv
bT:__ZN22btVoronoiSimplexSolver9addVertexERK9btVector3S2_S2_
zda:_luaF_findupval
yJa:_tls_prf_sha384
aP:__ZN20btCollisionAlgorithmD2Ev
w6:__GLOBAL__sub_I_script_timer_cpp
vma:__ZN5dmRigL14ApplyAnimationEPNS_9RigPlayerER7dmArrayIN11dmTransform9TransformEERKS2_IjERS2_INS_11IKAnimationEERS2_INS_12MeshSlotPoseEEbRS2_IiERif
j1:__ZN8dmRender22NewNamedConstantBufferEv
IT:__ZN26btBoxBoxCollisionAlgorithm22getAllContactManifoldsER20btAlignedObjectArrayIP20btPersistentManifoldE
s0:__ZNSt3__26__sortIRPFbRKN8dmRender3TagES4_EPS2_EEvT0_S9_T_
ema:__GLOBAL__sub_I_particle_ddf_cpp
Y8:_meth_accept
q0:__ZN8dmRender22GetMaterialVertexSpaceEPNS_8MaterialE
eEa:__ZN7dmCrashL15Crash_GetSignumEP9lua_State
qe:_emscripten_glGetTexParameteriv
FUa:_mbedtls_asn1_write_mpi
nh:_glDeleteTextures
nw:__ZN12dmGameSystem18CompGuiGetPropertyERKN12dmGameObject26ComponentGetPropertyParamsERNS0_12PropertyDescE
h:HEAPF64
fba:_opt_set_keepalive
tka:__ZN5dmHID19GetMarkedTextPacketEPNS_7ContextEPNS_16MarkedTextPacketE
sG:__ZN10dmGraphics24GetOriginalTextureHeightEPNS_7TextureE
Ls:__ZN11dmHashTableIyPKcE5EraseEy
cya:__ZN5dmGui13AddParticlefxEPNS_5SceneEPKcPv
dd:_emscripten_glDeleteShader
MQa:_mbedtls_ecp_set_zero
Z$:__ZN8dmRender22ApplyMaterialConstantsEPNS_13RenderContextEPNS_8MaterialEPKNS_12RenderObjectE
xE:__GLOBAL__sub_I_gui_ddf_cpp
RSa:_sha384_ctx_free
CS:__ZN20btPersistentManifold20refreshContactPointsERK11btTransformS2_
OMa:_x509_crt_check_parent
e6:__ZN8dmScript16Sys_LoadResourceEP9lua_State
Nj:FUNCTION_TABLE_i
i$a:dynCall_fiiifii
Qea:_luaH_getnum
F3a:_emscripten_glUniform3iv__wrapper
Zza:__ZN5dmGui18SetNodeSpineCursorEPNS_5SceneEjf
_j:FUNCTION_TABLE_v
qya:__ZN5dmGuiL15CollectClippersEPNS_5SceneEtttR7dmArrayINS_20InternalClippingNodeEEt
z6:__ZN8dmScript12UpdateTimersEPNS_10TimerWorldEf
QPa:_mbedtls_dhm_read_params
Dma:__ZN5dmRig18GenerateVertexDataEPNS_10RigContextEPNS_11RigInstanceERKN10Vectormath3Aos7Matrix4ES8_NS5_7Vector4ENS_15RigVertexFormatEPv
xfa:_luaL_checktype
cd:_emscripten_glDeleteRenderbuffers
Mia:_math_min
Et:__ZN16dmBlockAllocator8AllocateEPNS_7ContextEj
rga:_luaK_exp2anyreg
dZa:_isxdigit
kSa:_mbedtls_md_hmac_reset
bL:__ZN11btRigidBody12applyDampingEf
e5a:_emscripten_glColorMaski__wrapper
cWa:_memcmp
Mya:__ZN5dmGui14SetSceneScriptEPNS_5SceneEPNS_6ScriptE
Dla:__ZN10dmParticle12StopInstanceEPNS_7ContextEj
oXa:_accept
Wg:_glBufferData
n$:__ZN8dmRender12RenderObjectaSERKS0_
Iqa:__ZN9dmProfile8FinalizeEv
Qv:__ZN12dmGameSystem25FetchRigSceneDataCallbackEPvyPN5dmGui16RigSceneDataDescE
d5:__ZN8dmScript25GetStringFromHashOrStringEP9lua_StateiPcj
HGa:__ZN12dmSoundCodec7GetInfoEPNS_12CodecContextEPNS_7DecoderEPNS_4InfoE
fK:__ZN23btDiscreteDynamicsWorld19setConstraintSolverEP18btConstraintSolver
r$a:dynCall_iiif
ju:__ZN12dmGameSystem27CompCollectionFactoryUnloadEPN12dmGameObject16CollectionHandleEPNS_26CollectionFactoryComponentE
yP:__ZN32btSphereSphereCollisionAlgorithmD0Ev
GZa:_strncat
pva:_VP8LConvertBGRAToRGB_C
CYa:___DOUBLE_BITS_798
p2:__ZN8dmRender18DeleteRenderScriptEPNS_13RenderContextEPNS_12RenderScriptE
tB:__ZN12dmGameSystem16AcquireResourcesEPN10dmResource16SResourceFactoryEPN10dmSoundDDF9SoundDescEPPNS_5SoundE
jXa:_twoway_strstr
XX:__ZN7b2World4StepEfii
PUa:_mbedtls_ccm_init
uC:__ZN12dmGameSystem29ScriptCollectionProxyRegisterERKNS_16ScriptLibContextE
wy:__ZN12dmGameSystem33CompSpineModelSetIKTargetInstanceEPNS_19SpineModelComponentEyfy
Yr:__ZN10dmResource13StoreManifestEPNS_8ManifestE
cNa:_mbedtls_asn1_get_len
vT:__ZN6btDbvt6removeEP10btDbvtNode
dua:_ExtractAlphaRows
hHa:_mbedtls_md5_update_ret
HA:__ZN12dmGameSystem16ResLightRecreateERKN10dmResource22ResourceRecreateParamsE
fy:__ZN12dmObjectPoolIPN12dmGameSystem19SpineModelComponentEE4FreeEjb
Moa:__ZN17dmHttpCacheVerifyL9HttpWriteEPN12dmHttpClient8ResponseEPv
Vya:__ZN5dmGui18GetParticlefxCountEPNS_5SceneE
kt:__ZN10dmResourceL22PreloaderUpdateOneItemEPNS_17ResourcePreloaderEs
URa:_mbedtls_hmac_drbg_init
_Wa:_frexp
SWa:_fmt_x
UWa:_fmt_u
Z$a:dynCall_viiiiffffiif
TWa:_fmt_o
jm:__ZN11dmHashTableIyPN12dmGameObject8InstanceEE5EraseEy
vla:__ZN10dmParticle11ApplyRadialER7dmArrayINS_8ParticleEEPNS_8PropertyERKN10Vectormath3Aos6Point3Efff
vNa:_mbedtls_mpi_get_bit
NI:__ZN9dmPhysics11DebugDraw2D15DrawSolidCircleERK6b2Vec2fS3_RK7b2Color
baa:_socket_recv
c$a:_sbrk
vY:__Z14b2TimeOfImpactP11b2TOIOutputPK10b2TOIInput
AQa:_mbedtls_ecp_grp_id_list
tCa:__ZN5dmGuiL12LuaGetSlice9EP9lua_State
nRa:_ecp_normalize_jac_many
Kj:FUNCTION_TABLE_fiiiiif
jKa:_mbedtls_ssl_recv_flight_completed
qi:_glfwGetProcAddress
iq:__ZN12dmGameObject21CompScriptDeleteWorldERKNS_26ComponentDeleteWorldParamsE
SJ:__ZN16btCollisionWorld14getDebugDrawerEv
qua:_DispatchAlphaToGreen
eza:__ZN5dmGui19GetNodePropertyHashEPNS_5SceneEjy
pga:_exp2reg
Mr:__ZN5dmDDF12OutputStream10WriteFloatEf
Ega:_luaK_setlist
av:__ZN12dmGameSystem29CompCollisionGetGroupBitIndexEPvy
$Sa:_oid_pk_alg_from_asn1
e2:__ZN8dmRenderL29RenderScriptInstance_newindexEP9lua_State
Vha:_io_fclose
rIa:_mbedtls_rsa_check_pub_priv
M0a:_emscripten_glIsEnabledi__wrapper
Zma:__ZN8dmBuffer7DestroyEj
hEa:__ZN7dmCrashL15Crash_WriteDumpEP9lua_State
oh:_glDepthFunc
AGa:__ZN10dmDeviceJS18DeviceJSDeviceInfoEPvPN7dmSound10DeviceInfoE
gTa:_mbedtls_pem_read_buffer
a$a:_pthread_mutex_trylock
Ec:_emscripten_glClampColor
pXa:_ntohs
$r:__ZN10dmResourceL12LoadManifestEPKcPNS_16SResourceFactoryE
V$a:dynCall_viiif
Yia:_os_clock
G0:__ZN8dmRender19DeleteRenderContextEPNS_13RenderContextEPN8dmScript7ContextE
rXa:_ntohl
X$a:dynCall_viiii
A0:__ZN8dmRender12RenderObjectC2Ev
qsa:_WebPRescaleNeededLines
Cl:__ZN14dmFacebookStubL19Facebook_InitializeEPN11dmExtension6ParamsE
Nda:_markroot
rna:__ZN12dmConfigFile6GetIntEPNS_6ConfigEPKci
_za:__ZN5dmGui18GetNodeSpineCursorEPNS_5SceneEj
xW:__ZN16b2PrismaticJoint9SetLimitsEff
C$a:dynCall_vdd
Oia:_math_pow
QW:__ZN15b2RevoluteJoint13SetMotorSpeedEf
XF:__ZN10dmGraphics14GetUniformNameEmjPyPj
a2:__ZN8dmRenderL32RenderScriptConstantBuffer_indexEP9lua_State
On:__ZN12dmGameObject11SetRotationEPNS_8InstanceEN10Vectormath3Aos4QuatE
p8:__ZN8dmScript8PushQuatEP9lua_StateRKN10Vectormath3Aos4QuatE
eWa:_open
ik:FUNCTION_TABLE_viff
eRa:_ecp_modp
FEa:__ZN12dmLiveUpdate15AsyncInitializeEPN10dmResource16SResourceFactoryE
jsa:_ParseHeadersInternal
lk:FUNCTION_TABLE_vifi
c0:__ZN8dmRender30SetMaterialProgramConstantTypeEPNS_8MaterialEyN11dmRenderDDF12MaterialDesc12ConstantTypeE
mwa:_YuvToBgrRow
sma:__ZN5dmRig6UpdateEPNS_10RigContextEf
qVa:_mbedtls_poly1305_free
MJa:_ssl_extract_add_data_from_record
lQ:__ZNK10btBoxShape8getPlaneER9btVector3S1_i
kTa:_pem_aes_decrypt
Li:_glfwTerminate
pLa:_ssl_update_checksum_sha384
rya:__ZN5dmGuiL20CollectRenderEntriesEPNS_5SceneEttPNS_5ScopeER7dmArrayINS_20InternalClippingNodeEERS4_INS_11RenderEntryEE
LZ:__ZNK11b2WeldJoint16GetReactionForceEf
Kfa:_luaL_buffinit
W_:__ZNK15b2FrictionJoint17GetReactionTorqueEf
oSa:_md5_starts_wrap
pM:__ZN16btDbvtBroadphase22performDeferredRemovalEP12btDispatcher
x3:__ZN8dmScript11ResolvePathEP9lua_StatePKcjRy
iIa:_mbedtls_rsa_import_raw
CM:__ZNK6btDbvt15rayTestInternalEPK10btDbvtNodeRK9btVector3S5_S5_PjfS5_S5_RNS_8ICollideE
ot:__ZN11dmHashTableIybE5EraseEy
BR:__ZN21btConvexInternalShapeC2Ev
zfa:_luaL_checknumber
JDa:__ZN7dmCrash16LoadPreviousPathEPKc
zwa:_VP8GetValue
tu:__ZN12dmGameSystem25CompCollectionProxyUpdateERKN12dmGameObject22ComponentsUpdateParamsERNS0_22ComponentsUpdateResultE
m1:__ZN8dmRender25DeleteNamedConstantBufferEPNS_19NamedConstantBufferE
lE:__ZN12dmGameSystem20ScriptWindowRegisterERKNS_16ScriptLibContextE
Ooa:__ZN17dmHttpCacheVerifyL14VerifyCallbackEPvPKN11dmHttpCache9EntryInfoE
UU:__ZN12CProfileNode5ResetEv
oX:__ZN6b2Body12SetTransformERK6b2Vec2f
Ld:_emscripten_glGenerateMipmap
L7:__ZN8dmScriptL11Quat_concatEP9lua_State
vza:__ZN5dmGui17SetNodeSpineSceneEPNS_5SceneEjyyyb
Le:_emscripten_glIsTexture
IYa:_fputs
zr:__ZN5dmDDF11LoadContext10AllocBytesEi
uc:_emscripten_glBindVertexArray
Qya:__ZN5dmGui9SetNodeIdEPNS_5SceneEjy
gE:__ZN12dmGameSystemL21TileMap_ResetConstantEP9lua_State
Mx:__ZN12dmGameSystem17SetRenderConstantEPNS_19CompRenderConstantsEPN8dmRender8MaterialEyPjRKN12dmGameObject11PropertyVarE
R1:__ZN8dmRender29RenderScript_SetPolygonOffsetEP9lua_State
yea:_open_func
j0:__ZN8dmRender24GetMaterialRenderContextEPNS_8MaterialE
N$a:dynCall_vifi
bXa:___fwritex
K$a:dynCall_viff
eG:__ZN10dmGraphics15NewRenderTargetEPNS_7ContextEjPKNS_21TextureCreationParamsEPKNS_13TextureParamsE
TI:__ZN9dmPhysics11DebugDraw3DD0Ev
S1:__ZN8dmRender21RenderScript_GetWidthEP9lua_State
q$:__ZN8dmRender6Line3DEPNS_13RenderContextEN10Vectormath3Aos6Point3ES4_NS3_7Vector4ES5_
Nb:__inet_ntop6_raw
m2:__ZN8dmRender27FinalizeRenderScriptContextERNS_19RenderScriptContextEPN8dmScript7ContextE
bc:_dmSysGetUserAgent
Yy:__ZN12dmGameSystem20CompTileGridNewWorldERKN12dmGameObject23ComponentNewWorldParamsE
oca:_lua_pushlightuserdata
Sx:__ZN12dmGameSystem20CompSoundDeleteWorldERKN12dmGameObject26ComponentDeleteWorldParamsE
JD:__ZN12dmGameSystemL12Sound_SetPanEP9lua_State
nW:__ZN16b2PrismaticJoint23InitVelocityConstraintsERK12b2SolverData
_1:__ZN8dmRenderL29RenderScriptConstantBuffer_gcEP9lua_State
pEa:__ZN12dmLiveUpdate19GetMissingResourcesEyPPPc
Jla:__ZN10dmParticle10IsSleepingEPNS_7ContextEj
iha:_luaB_gcinfo
zEa:__ZN12dmLiveUpdate18GetCurrentManifestEv
GZ:__ZN13b2PulleyJointC2EPK16b2PulleyJointDef
K3a:_emscripten_glUniform4fv__wrapper
xf:_emscripten_glUniform1f
zf:_emscripten_glUniform1i
_Qa:_ecp_mul_comb_after_precomp
dp:__ZN12dmGameObjectL23ScriptInstance_newindexEP9lua_State
Iga:_luaX_syntaxerror
Ni:_gmtime_r
pMa:_x509_get_key_usage
ADa:__ZN5dmGuiL15GuiScriptGetURLEP9lua_State
jNa:_mbedtls_asn1_get_sequence_of
hUa:_ssl_write_encrypt_then_mac_ext
JNa:_mbedtls_mpi_add_abs
ic:_emscripten_glAttachShader
FX:__ZN9b2FixtureC2Ev
oe:_emscripten_glGetTexParameterIuiv
bya:__ZN5dmGui7AddFontEPNS_5SceneEPKcPv
a_:__ZN12b2WheelJointC2EPK15b2WheelJointDef
kOa:_mbedtls_cipher_info_from_type
FQ:__ZNK21btConvexInternalShape36getNumPreferredPenetrationDirectionsEv
Mla:__ZN10dmParticleL21UpdateEmitterVelocityEPNS_8InstanceEPNS_7EmitterEPN13dmParticleDDF7EmitterEf
asa:__ZN5dmURI6EncodeEPKcPcj
NF:__ZN10dmGraphics13DeleteProgramEPNS_7ContextEm
i4a:_emscripten_glClearBufferfv__wrapper
Bqa:__ZN8dmPPrint7PrinterC2EPci
Aa:invoke_vif
Ala:__ZNSt3__218__insertion_sort_3IRN10dmParticle8SortPredEPNS1_8ParticleEEEvT0_S6_T_
Fa:invoke_vii
mEa:__ZN7dmCrash14InstallHandlerEv
GSa:_sha224_ctx_alloc
HRa:_ecp_mod_koblitz
nra:__ZN8dmSocket7GetNameEiPNS_7AddressEPt
Eya:__ZN5dmGui10FinalSceneEPNS_5SceneE
d1:__ZNSt3__218__stable_sort_moveIRN8dmRender21RenderListEntrySorterEPjEEvT0_S5_T_NS_15iterator_traitsIS5_E15difference_typeEPNS8_10value_typeE
Op:__ZN12dmGameObject15ResScriptCreateERKN10dmResource20ResourceCreateParamsE
AF:__ZN10dmGraphics17DeleteIndexBufferEm
Lr:__ZN5dmDDF12OutputStream13WriteVarInt64Ey
mqa:__ZN9dmMessage16InternalDispatchEyPFvPNS_7MessageEPvES2_b
Jv:__ZN12dmGameSystem18CompGuiDeleteWorldERKN12dmGameObject26ComponentDeleteWorldParamsE
UGa:_mbedtls_ctr_drbg_free
RZa:__get_environ
aQa:_ecdh_init_internal
Qq:__ZN5dmDDF11InputBufferC2EPKcj
fya:__ZN5dmGui8AddLayerEPNS_5SceneEPKc
kz:__ZN12dmGameSystem18CompTileGridUpdateERKN12dmGameObject22ComponentsUpdateParamsERNS0_22ComponentsUpdateResultE
HX:__ZN9b2Fixture7DestroyEP16b2BlockAllocator
YE:__ZN10dmGraphics10NewTextureEPNS_7ContextERKNS_21TextureCreationParamsE
bha:_luaB_yield
Nha:_db_sethook
aKa:_ssl_get_remaining_space_in_datagram
$R:__ZN18btTriangleCallbackD2Ev
sh:_glDrawArrays
TSa:_sha384_process_wrap
RJa:_ssl_check_timer
bw:__ZN12dmGameSystem13CompGuiRenderERKN12dmGameObject22ComponentsRenderParamsE
hsa:__ZN6dmZlib13DeflateBufferEPKvjiPvPFbS2_S1_jE
LGa:__ZN12dmSoundCodec13DeleteDecoderEPNS_12CodecContextEPNS_7DecoderE
Dd:_emscripten_glFramebufferTexture2D
rj:_sysconf
KEa:__ZN12dmLiveUpdate18CreateManifestHashEN15dmLiveUpdateDDF13HashAlgorithmEPKhmPh
kRa:_mbedtls_mpi_shift_l_mod
uw:__ZN12dmGameSystem15CompLabelCreateERKN12dmGameObject21ComponentCreateParamsE
AG:__ZN10dmGraphics12SetDepthMaskEPNS_7ContextEb
ri:_glfwGetWindowParam
YK:__ZN11btRigidBody10setDampingEff
hg:_emscripten_glVertexAttribI1uiv
vMa:_x509_get_other_name
uba:_opt_set_ip_add_membership
Kia:_math_log
Ova:_WebPRescalerExportRowExpandC
mf:_emscripten_glTexParameterIiv
O4:__ZN8dmScriptL15DoLuaTableToDDFEP9lua_StatePKN5dmDDF10DescriptorEPcPS6_S7_iS6_
aHa:_mbedtls_entropy_func
Qwa:_End
eGa:_start_decoder
kQa:_mbedtls_ecdh_make_public
pra:__ZN8dmSocket11SetBlockingEib
uW:__ZN16b2PrismaticJoint11EnableLimitEb
jLa:_ssl_check_peer_crt_unchanged
_4a:_emscripten_glShaderBinary__wrapper
IOa:_mbedtls_cipher_auth_decrypt
Zka:__ZN7dmInput16RegisterGamepadsEPNS_7ContextEPKN10dmInputDDF11GamepadMapsE
MMa:_x509_memcasecmp
hla:__ZN10dmParticle14DestroyContextEPNS_7ContextE
$F:__ZN10dmGraphics11SetViewportEPNS_7ContextEiiii
U$:__ZN8dmRender10TagCompareERKNS_3TagES2_
H3:__ZN8dmScript17DeleteScriptWorldEPNS_11ScriptWorldE
Tia:_math_sin
sC:__ZN12dmGameSystem25GetCollectionProxyUrlHashEP9lua_Statei
TO:__ZN16btEmptyAlgorithm10CreateFunc24CreateCollisionAlgorithmER36btCollisionAlgorithmConstructionInfoP17btCollisionObjectS4_
e2a:_emscripten_glVertexAttrib3f__wrapper
psa:_WebPRescalerGetScaledDimensions
EO:__ZN31btDefaultCollisionConfiguration25getCollisionAlgorithmPoolEv
pYa:_arg_n_524
e5:__ZN8dmScript14InitializeHashEP9lua_State
lGa:__ZN12dmSoundCodecL13WavOpenStreamEPKvjPPv
zA:__ZN12dmGameSystem22ResInputBindingDestroyERKN10dmResource21ResourceDestroyParamsE
o6:__ZN8dmScriptL10Sys_RebootEP9lua_State
mc:_emscripten_glBindBuffer
Aaa:_buffer_meth_send
s_:__ZN24b2ChainAndPolygonContact8EvaluateEP10b2ManifoldRK11b2TransformS4_
ai:_glUseProgram
aEa:__ZN7dmCrashL17Crash_GetSysFieldEP9lua_State
WSa:_mbedtls_oid_get_x509_ext_type
KO:__ZN31btConvexPlaneCollisionAlgorithm10CreateFuncD0Ev
BQ:__ZNK14btCapsuleShape28calculateSerializeBufferSizeEv
DC:__ZN12dmGameSystemL7SetTextEP9lua_State
WL:__ZN15btNullPairCache24setOverlapFilterCallbackEP23btOverlapFilterCallback
Rg:_glBindBuffer
Nta:_VP8New
$ya:__ZN5dmGui13GetNodeSlice9EPNS_5SceneEj
Xt:__ZN12dmGameSystem17CompCameraDestroyERKN12dmGameObject22ComponentDestroyParamsE
ye:_emscripten_glGetVertexAttribIiv
Vd:_emscripten_glGetBooleanv
Y_:__ZN15b2FrictionJointD0Ev
J7:__ZN8dmScriptL13Quat_newindexEP9lua_State
_va:_WebPInitUpsamplers
$Ya:_isupper
Wp:__ZN11dmHashTableImtE3PutEmRKt
Bza:__ZN5dmGuiL17SetBoneTransformsEPNS_5SceneEPNS_12InternalNodeERjR7dmArrayIN11dmTransform9TransformEE
QRa:_mbedtls_gcm_finish
Cua:_HFilter8
B9:_meth_dirty_7475
H3a:_emscripten_glUniform1fv__wrapper
YY:__ZN23b2GridAndPolygonContact8EvaluateEP10b2ManifoldRK11b2TransformS4_
SRa:_mbedtls_gcm_auth_decrypt
fb:___cxa_find_matching_catch
ty:__ZN12dmGameSystem25CompSpineModelGetPropertyERKN12dmGameObject26ComponentGetPropertyParamsERNS0_12PropertyDescE
gH:__ZN9dmPhysics17NewPolygonShape2DEPNS_9Context2DEPKfj
f1:__ZNSt3__224__buffered_inplace_mergeIRN8dmRender21RenderListEntrySorterEPjEEvT0_S5_S5_T_NS_15iterator_traitsIS5_E15difference_typeES9_PNS8_10value_typeE
kX:__ZN6b2Body13CreateFixtureEPK12b2FixtureDef
F3:__ZN8dmScript26GetScriptWorldContextValueEPNS_11ScriptWorldE
Lg:_gethostbyaddr
oIa:_mbedtls_rsa_check_privkey
pJa:_mbedtls_sha512_ret
dO:__ZN12btConvexCast10CastResultD0Ev
OG:__ZN9dmPhysics30ProcessRayCastResultCallback2D13ReportFixtureEP9b2FixtureiRK6b2Vec2S5_f
W9:_socket_setnonblocking
ina:__ZN12dmConfigFile10HttpHeaderEPN12dmHttpClient8ResponseEPviPKcS5_
f1a:_emscripten_glClearDepth__wrapper
kv:__ZN12dmGameSystem10GetGravityEPv
ITa:_ssl_get_ecdh_params_from_cert
Gl:__ZN8dmRecord11RecordFrameEPNS_8RecorderEPKvjNS_12BufferFormatE
Tp:__GLOBAL__sub_I_properties_ddf_cpp
Uca:_lua_getstack
NZa:___emscripten_environ_constructor
MG:__ZN9dmPhysics30ProcessRayCastResultCallback2DD2Ev
E0a:_emscripten_glCheckFramebufferStatus__wrapper
sp:__ZN12dmGameObjectL27ScriptInstanceResolvePathCBEmPKcj
o8:__ZN8dmScript12CheckVector4EP9lua_Statei
bda:_luaG_errormsg
_ba:_lua_toboolean
NS:__ZNK15btTriangleShape36getNumPreferredPenetrationDirectionsEv
sZa:___ftello_unlocked
nPa:_camellia_ctx_alloc
sm:__ZN12dmGameObject17FindComponentTypeEPNS_8RegisterEmPj
zla:__ZNSt3__27__sort5IRN10dmParticle8SortPredEPNS1_8ParticleEEEjT0_S6_S6_S6_S6_T_
w2a:_emscripten_glUniform1i__wrapper
TL:__ZN15btNullPairCache20cleanOverlappingPairER16btBroadphasePairP12btDispatcher
jza:__ZN5dmGui16SetNodeLineBreakEPNS_5SceneEjb
ZOa:_des_crypt_cbc_wrap
bja:_os_getenv
N4a:_emscripten_glStencilOpSeparate__wrapper
IB:__ZN12dmGameSystem16ResSpriteDestroyERKN10dmResource21ResourceDestroyParamsE
SC:__ZN12dmGameSystem15ParticleFX_PlayEP9lua_State
oYa:_vfscanf
Gka:__ZN5dmHIDL18MarkedTextCallbackEPc
qka:__ZN5dmHID17GetKeyboardPacketEPNS_7ContextEPNS_14KeyboardPacketE
qM:__ZN6btDbvt24collideTTpersistentStackEPK10btDbvtNodeS2_RNS_8ICollideE
Zx:__ZN12dmGameSystem22CompSpineModelNewWorldERKN12dmGameObject23ComponentNewWorldParamsE
TY:__ZN23b2EdgeAndPolygonContact7DestroyEP9b2ContactP16b2BlockAllocator
T_a:_bitshift64Shl
xsa:_deflate_stored
ixa:_GradientFilter
zs:__ZN10dmResource9GetByHashEPNS_16SResourceFactoryEy
oA:__ZN12dmGameSystem19ResPreloadGuiScriptERKN10dmResource21ResourcePreloadParamsE
sf:_emscripten_glTexStorage2D
hk:FUNCTION_TABLE_vif
hja:_luaopen_table
oM:__ZN16btDbvtBroadphase7collideEP12btDispatcher
d9:_meth_getpeername
FR:__ZNK13btConvexShape44localGetSupportVertexWithoutMarginNonVirtualERK9btVector3
aA:__ZN12dmGameSystem17ResFactoryDestroyERKN10dmResource21ResourceDestroyParamsE
DQa:_mbedtls_ecp_get_type
oLa:_ssl_update_checksum_md5sha1
FC:__ZN12dmGameSystemL14GetTextMetricsEP9lua_State
er:__ZN5dmDDF11InputBuffer8ReadBoolEPb
AZa:_clearerr
Vxa:__ZN5dmGui16GetSceneUserDataEPNS_5SceneE
u_a:__ZSt13get_terminatev
k4a:b45
Dta:_ExportAlphaRGBA4444
U4a:b47
Ts:__ZN17dmResourceArchive22CacheLiveUpdateEntriesEPKNS_21ArchiveIndexContainerES2_PNS_17LiveUpdateEntriesE
n3a:b41
l3a:b40
kpa:__ZL16stbi__idct_blockPhiPs
o3a:b42
Ota:_VP8Delete
yRa:_mbedtls_ecp_group_load
W4a:b49
V4a:b48
PS:__ZNK15btTriangleShape14getNumVerticesEv
Bp:__ZN12dmGameObject19ResCollectionCreateERKN10dmResource20ResourceCreateParamsE
Zpa:__ZN8dmMemory11AlignedFreeEPv
m5a:_emscripten_glTexStorage3D__wrapper
Xn:__ZN12dmGameObject11PropertySetC2Ev
qT:__ZL10removeleafP6btDbvtP10btDbvtNode
fh:_glCreateProgram
UT:__ZN28btCompoundCollisionAlgorithm26preallocateChildAlgorithmsEP17btCollisionObjectS1_
cFa:__ZN7dmSound10InitializeEPN12dmConfigFile6ConfigEPKNS_16InitializeParamsE
ID:__ZN12dmGameSystemL13Sound_SetGainEP9lua_State
hNa:_mbedtls_asn1_get_bitstring
wQa:_mbedtls_ecdsa_read_signature_restartable
vja:_str_char
fDa:__ZN5dmGuiL18LuaGetInheritAlphaEP9lua_State
AY:__ZN16b2StackAllocatorD2Ev
kQ:__ZNK10btBoxShape12getNumPlanesEv
zh:_glGenBuffers
K8:_luaopen_socket_core
Lla:__ZN10dmParticle6UpdateEPNS_7ContextEfPFNS_20FetchAnimationResultEPvyPNS_13AnimationDataEE
kma:__ZN5dmRig13PlayAnimationEPNS_11RigInstanceEyNS_11RigPlaybackEfff
Ty:__ZN12dmGameSystem18CompSpriteOnReloadERKN12dmGameObject23ComponentOnReloadParamsE
Vv:__ZN12dmGameSystem15RenderTextNodesEPN5dmGui5SceneEPKNS0_11RenderEntryEPKN10Vectormath3Aos7Matrix4EPKfPPKNS0_12StencilScopeEjPv
ol:__Z15FinalizeJsToDefPN11dmExtension6ParamsE
Vma:__ZN8dmBuffer15GetResultStringENS_6ResultE
JBa:__ZN5dmGuiL14LuaNewTextNodeEP9lua_State
TBa:__ZN5dmGuiL18LuaSetClippingModeEP9lua_State
QIa:_mbedtls_rsa_deduce_private_exponent
r8:__ZN8dmScript11PushMatrix4EP9lua_StateRKN10Vectormath3Aos7Matrix4E
fNa:_mbedtls_asn1_get_int
Qka:__ZN7dmInput10InitKeyMapEv
Oz:__ZN12dmGameSystem26ResCollisionObjectRecreateERKN10dmResource22ResourceRecreateParamsE
rg:_emscripten_glVertexAttribI4i
u6:__ZN8dmScript11DoPushTableEP9lua_StateRNS_15PushTableLoggerERKNS_11TableHeaderEPKcS8_jj
po:__ZN12dmGameObject36PropertyContainerGetPropertyCallbackEPNS_10PropertiesEmyRNS_11PropertyVarE
hQa:_mbedtls_ecdh_get_params
Xta:_VP8LGetInfo
aB:__ZN12dmGameSystem20ResParticleFXDestroyERKN10dmResource21ResourceDestroyParamsE
Mi:_gmtime
Jf:_emscripten_glUniform3i
hLa:_mbedtls_ssl_check_curve
YZa:___cxa_get_globals_fast
hpa:__ZN12dmHttpClient20ReopenConnectionPoolEv
jSa:_mbedtls_md_hmac_finish
hI:__ZNK9dmPhysics11MotionState17getWorldTransformER11btTransform
cy:__ZN12dmGameSystemL16DestroyComponentEPNS_15SpineModelWorldEj
DPa:_mbedtls_des_setkey_enc
Nua:_VE4
l$:__ZNK12b2ChainShape12GetChildEdgeEP11b2EdgeShapei
ll:__ZN10dmProfiler14RenderProfilerEPN9dmProfile7ProfileEPN10dmGraphics7ContextEPN8dmRender13RenderContextEPNS6_7FontMapE
F9:_meth_getsockname_7483
x1:__ZN8dmRender32RenderScript_DisableRenderTargetEP9lua_State
Oca:_lua_getupvalue
Cka:__ZN5dmHID16GetGamepadButtonEPNS_13GamepadPacketEj
Qa:invoke_viiiiffffiif
dw:__ZN12dmGameSystemL13DeleteTextureEPN5dmGui5SceneEPvS3_
O:Math_max
B0a:_emscripten_glIsProgram__wrapper
Tl:__ZN12dmGameObject10InitializeEPNS_8RegisterEPN8dmScript7ContextE
rd:_emscripten_glDrawElements
nGa:__ZN12dmSoundCodec15WavDecodeStreamEPvPcjPj
n2a:_emscripten_glGetBooleanv__wrapper
uea:_yindex
Ai:_glfwSetCharCallback
pu:__ZN12dmGameSystem25CompCollectionProxyCreateERKN12dmGameObject21ComponentCreateParamsE
ona:__ZN12dmConfigFileL20LoadFromHttpInternalEPKcRKN5dmURI5PartsEiPS1_PPNS_6ConfigE
Wr:__ZN10dmResource10HashLengthEN15dmLiveUpdateDDF13HashAlgorithmE
F1a:_emscripten_glClientActiveTexture__wrapper
_la:__ZN10dmParticle11SetMaterialEPNS_9PrototypeEjPv
aqa:__ZN9dmMessage9NewSocketEPKcPy
AIa:_mbedtls_rsa_rsaes_pkcs1_v15_decrypt
_O:__ZN33btConvexConcaveCollisionAlgorithm10CreateFuncD0Ev
Av:__ZN12dmGameSystem17CompFactoryUpdateERKN12dmGameObject22ComponentsUpdateParamsERNS0_22ComponentsUpdateResultE
Y6:__ZN8dmScriptL8Quat_newEP9lua_State
D4:__ZN8dmScriptL10CopyBufferEP9lua_State
Q2:__ZN11dmHashTableIyPN8dmScript6ModuleEE11SetCapacityEjj
S$:__ZN8dmRender14GetTextMetricsEPNS_7FontMapEPKcfbffPNS_11TextMetricsE
jW:__ZNK16b2PrismaticJoint17GetReactionTorqueEf
l3:__ZN8dmScript16GetScriptContextEP9lua_State
K1a:_emscripten_glDisableVertexAttribArray__wrapper
tL:__ZN20btAxisSweep3InternalItE7rayTestERK9btVector3S3_R23btBroadphaseRayCallbackS3_S3_
JR:__ZNK23btPolyhedralConvexShape21calculateLocalInertiaEfR9btVector3
Je:_emscripten_glIsRenderbuffer
Cb:___syscall40
GRa:_ecp_use_curve448
wma:__ZN5dmRigL16GetPoseTransformERK7dmArrayINS_7RigBoneEERKS0_IN11dmTransform9TransformEES6_j
eoa:_dmHashInit64
B5:__ZN8dmScript14InitializeJsonEP9lua_State
RX:__ZN7b2World10CreateBodyEPK9b2BodyDef
Ap:__ZN12dmGameObject20ResCollectionPreloadERKN10dmResource21ResourcePreloadParamsE
qaa:_auxiliar_add2group
pH:__ZN9dmPhysics20NewCollisionObject2DEPNS_7World2DERKNS_19CollisionObjectDataEPPvj
xma:__ZN5dmRigL18PostEventsIntervalEPNS_11RigInstanceEPKN8dmRigDDF12RigAnimationEfffbf
wYa:_scanexp
Ewa:_VP8LColorCacheInit
Ofa:_luaL_ref
TQa:_mbedtls_ecp_mul_restartable
s7:__ZN8dmScriptL5CrossEP9lua_State
e:HEAPU16
Ib:___unlock
Ay:__ZN12dmGameSystem27CompSpineModelResetIKTargetEPNS_19SpineModelComponentEy
rVa:_mbedtls_poly1305_starts
WZ:__ZNK12b2WheelJoint17GetReactionTorqueEf
bna:__ZN8dmBuffer8GetBytesEjPPvPj
JCa:__ZN5dmGuiL16LuaResetKeyboardEP9lua_State
o$:__ZN8dmRender21FinalizeDebugRendererEPNS_13RenderContextE
FMa:_x509_crt_verify_chain
I1:__ZN8dmRender26RenderScript_SetProjectionEP9lua_State
H9:_meth_receivefrom
bD:__ZN12dmGameSystemL26Physics_GetJointPropertiesEP9lua_State
Ada:_luaF_freeupval
pNa:_mbedtls_mpi_grow
z$a:dynCall_iiiiiiiiiiii
sYa:_mbsinit
vwa:_ConvertRGB24ToY
nr:__ZN5dmDDF7Message14ReadBytesFieldEPNS_11LoadContextENS_8WireTypeEPKNS_15FieldDescriptorEPNS_11InputBufferE
lSa:_mbedtls_md_process
xPa:_aes_ctx_free
MC:__ZN12dmGameSystem24LuaModelComp_SetConstantEP9lua_State
tJa:_mbedtls_net_send
nF:__ZN10dmGraphics12ResizeWindowEPNS_7ContextEjj
gFa:__ZN7dmSound11SoundSystemD2Ev
J4:__ZN8dmScriptL15Stream_newindexEP9lua_State
Cq:__ZN5dmDDF11LoadMessageEPKvjPKNS_10DescriptorEPPv
kf:_emscripten_glTexImage2D
Qb:__isLeapYear
a2a:_emscripten_glUniform2f__wrapper
w8:__ZN8dmScript14InitializeZlibEP9lua_State
QYa:_gethostname
rza:__ZN5dmGui21GetNodeFlipbookAnimIdEPNS_5SceneEj
bG:__ZN10dmGraphics13SetConstantM4EPNS_7ContextEPKN10Vectormath3Aos7Vector4Ei
kla:__ZN10dmParticleL11InitEmitterEPNS_7EmitterEPN13dmParticleDDF7EmitterEj
ita:_jsmn_init
MXa:_qsort
Ba:invoke_viff
Ea:invoke_vifi
CVa:_try_realloc_chunk
Ida:_GCTM
tSa:_md5_clone_wrap
jda:_luaD_growstack
V$:__ZN8dmRender11NewMaterialEPNS_13RenderContextEmm
e3:__ZN8dmScript3RefEP9lua_Statei
Aya:__ZN5dmGuiL11UpdateScopeEPNS_12InternalNodeERNS_12StencilScopeES3_PKS2_tttt
Tba:_lua_isstring
lc:_emscripten_glBindAttribLocation
zJa:_tls1_prf
cq:__ZN12dmGameObjectL8GetWorldEPNS_16CollectionHandleE
VE:__ZN10dmGraphics10OpenWindowEPNS_7ContextEPNS_12WindowParamsE
BJ:__ZN35btSequentialImpulseConstraintSolver33solveGroupCacheFriendlyIterationsEPP17btCollisionObjectiPP20btPersistentManifoldiPP17btTypedConstraintiRK19btContactSolverInfoP12btIDebugDrawP12btStackAlloc
Kna:__Z10dmSnPrintfPcmPKcz
iDa:__ZN5dmGuiL24PushPfxCallbackArgumentsEP9lua_StatePv
cH:__ZN9dmPhysics11StepWorld2DEPNS_7World2DERKNS_16StepWorldContextE
cE:__ZN12dmGameSystem20ScriptSpriteRegisterERKNS_16ScriptLibContextE
iD:__ZN12dmGameSystemL16Physics_SetFlipVEP9lua_State
c5:__ZN8dmScript17CheckHashOrStringEP9lua_Statei
Hpa:__ZN7dmImage4LoadEPKvjbPNS_5ImageE
qEa:__ZN12dmLiveUpdate14VerifyResourceEPN10dmResource8ManifestEPKcjPKN17dmResourceArchive18LiveUpdateResourceE
NZ:__ZN11b2WeldJoint4DumpEv
Re:_emscripten_glMatrixMode
oWa:_setsockopt
Aza:__ZN5dmGui28CalculateParentNodeTransformEPNS_5SceneEPNS_12InternalNodeERN10Vectormath3Aos7Matrix4E
qc:_emscripten_glBindFramebuffer
yla:__ZNSt3__27__sort4IRN10dmParticle8SortPredEPNS1_8ParticleEEEjT0_S6_S6_S6_T_
q3:__ZN8dmScript15IsValidInstanceEP9lua_State
Sla:__ZN10dmParticle15ReloadPrototypeEPNS_9PrototypeEPKvj
XQ:__ZNK15btCompoundShape9getMarginEv
iya:__ZN5dmGui9GetLayoutEPNS_5SceneE
aFa:__ZN7dmSound26SetDefaultInitializeParamsEPNS_16InitializeParamsE
bfa:_luaV_tostring
aIa:_pk_use_ecparams
voa:__ZN11dmHttpCache5CacheD2Ev
Woa:__ZN12dmHttpClient5WriteEPNS_8ResponseEPKvj
Zya:__ZN5dmGui11GetNodeTypeEPNS_5SceneEj
Fna:__ZN5dmDNS8FinalizeEv
Jca:_lua_gc
Ol:__ZN12dmGameObject11PropertyVarC2EN10Vectormath3Aos7Vector3E
raa:_auxiliar_checkboolean
np:__ZN12dmGameObjectL18GetPropertyDefaultEPNS_10PropertiesEmyRNS_11PropertyVarE
f6:__ZN8dmScript14Sys_GetSysInfoEP9lua_State
WC:__ZN12dmGameSystem24ScriptParticleFXRegisterERKNS_16ScriptLibContextE
PL:__ZN15btNullPairCache37removeOverlappingPairsContainingProxyEP17btBroadphaseProxyP12btDispatcher
_J:__ZN23btDiscreteDynamicsWorld9addActionEP17btActionInterface
bd:_emscripten_glDeleteProgram
u2:__ZN8dmRender26DeleteRenderScriptInstanceEPNS_20RenderScriptInstanceE
CL:__ZN20btAxisSweep3InternalItE12updateHandleEtRK9btVector3S3_P12btDispatcher
Bg:_emscripten_glViewport
XWa:_fmt_fp
Ox:__ZN12dmGameSystem21ReHashRenderConstantsEPNS_19CompRenderConstantsEP11HashState32
YKa:_mbedtls_ssl_send_alert_message
Ip:__ZN12dmGameObject19ResPrototypePreloadERKN10dmResource21ResourcePreloadParamsE
a$:__ZN15b2FrictionJointC2EPK18b2FrictionJointDef
zY:__ZN16b2StackAllocatorC2Ev
MFa:_point_compare
pHa:_mbedtls_pk_verify_restartable
TJ:__ZN23btDiscreteDynamicsWorld14debugDrawWorldEv
bg:_emscripten_glVertexAttrib4f
Hz:__ZN12dmGameSystem28ResCollectionFactoryRecreateERKN10dmResource22ResourceRecreateParamsE
Ti:_llvm_log10_f32
Rpa:__ZL15dmLogInitSocketRi
rta:_Dither8x8
aja:_os_exit
pc:_emscripten_glBindFragDataLocation
_e:_emscripten_glSampleCoverage
X9:_socket_listen
pP:__ZN25btSimulationIslandManagerD0Ev
pB:__ZN12dmGameSystem18ResSkeletonPreloadERKN10dmResource21ResourcePreloadParamsE
nwa:_YuvToBgraRow
BA:__ZN12dmGameSystem15ResLabelPreloadERKN10dmResource21ResourcePreloadParamsE
rha:_luaB_rawget
daa:_socket_gethostbyaddr
PV:__ZN9b2Simplex6Solve3Ev
t3a:_emscripten_glTexParameterfv__wrapper
dna:__ZN8dmBuffer13GetStreamTypeEjyPNS_9ValueTypeEPj
Ufa:_luaL_newstate
xw:__ZN12dmObjectPoolIN12dmGameSystem14LabelComponentEE4FreeEjb
Lo:__ZN12dmGameObject16Script_SetParentEP9lua_State
pA:__ZN12dmGameSystem18ResCreateGuiScriptERKN10dmResource20ResourceCreateParamsE
uU:__ZN31btConvexPlaneCollisionAlgorithmD2Ev
iF:__ZN10dmGraphics13GetDisplayDpiEPNS_7ContextE
Y0:__ZNSt3__213__stable_sortIRN8dmRender21RenderListEntrySorterEPjEEvT0_S5_T_NS_15iterator_traitsIS5_E15difference_typeEPNS8_10value_typeEl
CUa:_mbedtls_x509_time_is_future
uGa:__ZN7dmSound22PlatformIsMusicPlayingEbb
IZ:__ZNK13b2PulleyJoint16GetGroundAnchorBEv
mZ:__ZN7b2JointD0Ev
R2:__ZN11dmHashTableIyPN8dmScript6ModuleEE3PutEyRKS2_
eea:_luaO_chunkid
tn:__ZN12dmGameObjectL19DoSetBoneTransformsEPNS_16CollectionHandleEPN11dmTransform9TransformEtS4_j
h5a:_emscripten_glVertexAttribI4i__wrapper
hK:__ZNK23btDiscreteDynamicsWorld17getNumConstraintsEv
ez:__ZN12dmGameSystem18CompTileGridCreateERKN12dmGameObject21ComponentCreateParamsE
Ie:_emscripten_glIsProgram
GCa:__ZN5dmGuiL12LuaCloneTreeEP9lua_State
Qu:__ZN12dmGameSystem22TriggerEnteredCallbackERKN9dmPhysics12TriggerEnterEPv
Ik:stackSave
Zna:_dmHashBuffer64
dMa:_mbedtls_ssl_check_sig_hash
sba:_opt_set_ip_multicast_if
DNa:_mbedtls_mpi_mul_int
Apa:__ZL20stbi__process_markerP10stbi__jpegi
gc:_emscripten_get_now_is_monotonic
q1a:b29
Fwa:_VP8LColorCacheClear
k1a:b27
i1a:b26
g1a:b25
e1a:b24
Y0a:b23
X0a:b22
W0a:b21
V0a:b20
h3a:_emscripten_glUniform1ui__wrapper
oR:__ZNK17btConvexHullShape14getNumVerticesEv
G1a:_emscripten_glBindVertexArray__wrapper
jwa:_WebPInitSamplers
uma:__ZN5dmRigL12UpdatePlayerEPNS_11RigInstanceEPNS_9RigPlayerEff
jRa:_mbedtls_mpi_sub_mod
wja:_str_dump
ifa:_luaZ_fill
Yb:_dmDeviceJSOpen
ut:__ZN11dmLoadQueue11DeleteQueueEPNS_5QueueE
Nea:_luaH_get
Jsa:_init_block
DCa:__ZN5dmGuiL12LuaMoveBelowEP9lua_State
jZ:__ZN7b2Joint7DestroyEPS_P16b2BlockAllocator
ss:__ZN10dmResourceL20DoLoadResourceLockedEPNS_16SResourceFactoryEPKcS3_PjP7dmArrayIcE
lla:__ZN10dmParticle23UpdateEmitterRenderDataEjjPNS_8InstanceEPNS_7EmitterEPN13dmParticleDDF7EmitterE
fx:__ZN12dmGameSystem20CompModelAddToUpdateERKN12dmGameObject26ComponentAddToUpdateParamsE
iB:__ZN12dmGameSystem22ResRenderScriptDestroyERKN10dmResource21ResourceDestroyParamsE
dl:__GLOBAL__sub_I_engine_ddf_cpp
fpa:__ZN12dmHttpClient13GetDNSChannelEPNS_6ClientE
HB:__ZN12dmGameSystem15ResSpriteCreateERKN10dmResource20ResourceCreateParamsE
z_a:__ZNK10__cxxabiv122__base_class_type_info27has_unambiguous_public_baseEPNS_19__dynamic_cast_infoEPvi
lZ:__ZN7b2Joint4DumpEv
PEa:__ZN12dmDeviceNull20DeviceNullDeviceInfoEPvPN7dmSound10DeviceInfoE
P2:__ZN11dmHashTableIyN8dmScript6ModuleEE11SetCapacityEjj
mpa:__ZL23stbi__resample_row_hv_2PhS_S_ii
n8:__ZN8dmScript11PushVector4EP9lua_StateRKN10Vectormath3Aos7Vector4E
KS:__ZNK15btTriangleShape7getNameEv
lA:__ZN12dmGameSystem19ResGamepadMapCreateERKN10dmResource20ResourceCreateParamsE
lm:__ZN12dmGameObjectL19EraseSwapLevelIndexEPNS_10CollectionEPNS_8InstanceE
_g:_glClearColor
aGa:_imdct_step3_inner_r_loop
ne:_emscripten_glGetTexParameterIiv
R2a:_emscripten_glEnablei__wrapper
DN:__ZN17btCollisionObject8activateEb
U7:__ZN8dmScriptL11Vector4_unmEP9lua_State
DXa:_inet_ntop
k1:__ZN11dmHashTableIyN10Vectormath3Aos7Vector4EE11SetCapacityEjj
qq:__ZN12dmGameObject19CompScriptOnMessageERKNS_24ComponentOnMessageParamsE
gA:__ZN12dmGameSystem18ResFontMapRecreateERKN10dmResource22ResourceRecreateParamsE
qba:_opt_get_linger
Gea:_luaS_newlstr
Vc:_emscripten_glCopyTexImage2D
Kt:__ZN12dmGameSystem21RegisterResourceTypesEPN10dmResource16SResourceFactoryEPN8dmRender13RenderContextEPNS_10GuiContextEPN7dmInput7ContextEPNS_14PhysicsContextE
$wa:_VP8ResetProba
ih:_glDeleteBuffers
uYa:_hexfloat
xAa:__ZN5dmGui19GetNodePieFillAngleEPNS_5SceneEj
AEa:__ZN12dmLiveUpdate10InitializeEPN10dmResource16SResourceFactoryE
eJa:_mbedtls_internal_sha256_process
pt:__ZN11dmHashTableIybE3PutEyRKb
jF:__ZN10dmGraphics8GetWidthEPNS_7ContextE
GAa:__ZN5dmGui21GetNodeFlipbookAnimUVEPNS_5SceneEj
Zga:_luaB_coresume
pC:__ZN12dmGameSystem31ScriptCollectionFactoryRegisterERKNS_16ScriptLibContextE
qKa:_mbedtls_ssl_write_handshake_msg
Dba:_luaA_pushobject
aG:__ZN10dmGraphics13SetConstantV4EPNS_7ContextEPKN10Vectormath3Aos7Vector4Ei
V1:__ZN8dmRender28RenderScript_GetWindowHeightEP9lua_State
xD:__ZN12dmGameSystem19ScriptSoundRegisterERKNS_16ScriptLibContextE
nHa:_mbedtls_pk_setup
t4a:_emscripten_glGetAttachedShaders__wrapper
Iv:__ZN12dmGameSystem15CompGuiNewWorldERKN12dmGameObject23ComponentNewWorldParamsE
Ep:__ZN12dmGameObject21ResCollectionRecreateERKN10dmResource22ResourceRecreateParamsE
Ii:_glfwShowKeyboard
TTa:_ssl_parse_max_fragment_length_ext
f2:__ZN8dmRenderL26RenderScriptInstanceGetURLEP9lua_State
VLa:_ssl_write_split
bYa:___ofl_lock
FHa:_rsa_check_pair_wrap
DRa:_ecp_mod_p255
OE:__ZN10dmGraphics10LogGLErrorEi
vda:_DumpFunction
$s:__ZN17dmResourceArchive22CreateFilesIfNotExistsEPNS_21ArchiveIndexContainerEPKc
xx:__ZN12dmGameSystem20CompParticleFXUpdateERKN12dmGameObject22ComponentsUpdateParamsERNS0_22ComponentsUpdateResultE
OJa:_mbedtls_ssl_safer_memcmp
Wga:_luaB_pairs
Z0:__ZN8dmRenderL23CollectRenderEntryRangeEPvjmm
Cla:__ZN10dmParticle13StartInstanceEPNS_7ContextEj
RP:__ZN22SphereTriangleDetector7collideERK9btVector3RS0_S3_RfS4_f
Gb:___syscall63
VTa:_ssl_parse_encrypt_then_mac_ext
V3:__ZN8dmScript16ClearLuaRefCountEv
x2:__ZN8dmRender34ClearRenderScriptInstanceMaterialsEPNS_20RenderScriptInstanceE
o2a:_emscripten_glGenTextures__wrapper
TS:__ZNK15btTriangleShape12getNumPlanesEv
sfa:_luaL_optlstring
x_:__ZN15b2CircleContactD0Ev
gNa:_mbedtls_asn1_get_mpi
I3a:_emscripten_glUniform2fv__wrapper
uNa:_mbedtls_mpi_lset
MZa:_tanh
bO:__ZN12btConvexCast10CastResult15drawCoordSystemERK11btTransform
mZa:_setlocale
ew:__ZN12dmGameSystemL14SetTextureDataEPN5dmGui5SceneEPvjjN7dmImage4TypeEPKvS3_
aK:__ZN23btDiscreteDynamicsWorld10setGravityERK9btVector3
zg:_emscripten_glVertexAttribPointer
Sb:__write_sockaddr
GKa:_ssl_next_record_is_in_datagram
uaa:_auxiliar_checkgroup
ZJ:__ZN23btDiscreteDynamicsWorld16removeConstraintEP17btTypedConstraint
oy:__ZN12dmGameSystem20CompSpineModelRenderERKN12dmGameObject22ComponentsRenderParamsE
RBa:__ZN5dmGuiL15LuaSetBlendModeEP9lua_State
NH:__ZN9dmPhysics7World3DC2EPNS_9Context3DERKNS_14NewWorldParamsE
cj:_pthread_cond_destroy
WT:__ZN22btCompoundLeafCallbackD0Ev
DM:__ZN19BroadphaseRayTesterD0Ev
iRa:_ecp_add_mixed
oda:_lua_resume
f7:__ZN8dmScriptL14Matrix4_LookAtEP9lua_State
E5a:_emscripten_glTexImage3D__wrapper
uLa:_mbedtls_ssl_parse_finished
D6:__ZN8dmScript19TimerNewScriptWorldEPNS_11ScriptWorldE
rp:__ZN12dmGameObject17NewScriptInstanceEPNS_15CompScriptWorldEPNS_6ScriptEPNS_8InstanceEt
Gma:__ZN5dmRig7IsValidEPNS_11RigInstanceE
n_:__ZL16b2EdgeSeparationPK14b2PolygonShapeRK11b2TransformiS1_S4_
Jra:__ZN5dmSys21FillLanguageTerritoryEPKcPNS_10SystemInfoE
BMa:_x509_crt_verify_chain_reset
w2:__ZN8dmRender31AddRenderScriptInstanceMaterialEPNS_20RenderScriptInstanceEPKcPNS_8MaterialE
Bc:_emscripten_glBufferData
oMa:_x509_get_basic_constraints
$o:__ZN12dmGameObject15Script_PropertyEP9lua_State
KY:__ZN9b2ContactD0Ev
LMa:_x509_string_cmp
mC:__ZN11dmHashTableIyN12dmGameObject22InstancePropertyBufferEE11SetCapacityEjj
Lc:_emscripten_glClearDepth
hQ:__ZNK10btBoxShape11getNumEdgesEv
QJ:__ZN23btDiscreteDynamicsWorldD0Ev
E4a:_emscripten_glColorPointer__wrapper
ki:_glfwGetJoystickParam
xQ:__ZN14btCapsuleShape15setLocalScalingERK9btVector3
Raa:_inet_meth_getpeername
REa:__ZN12dmDeviceNull14DeviceNullStopEPv
JQa:_mbedtls_ecp_keypair_free
KB:__ZN12dmGameSystem17WebPDecodeTextureEjjiPN10dmGraphics12TextureImage5ImageERPhRj
Zta:_VP8LClear
DKa:_mbedtls_ssl_read_record
$a:_JsToDef_RemoveCallbacks
Yv:__ZN12dmGameSystem14RenderBoxNodesEPN5dmGui5SceneEPKNS0_11RenderEntryEPKN10Vectormath3Aos7Matrix4EPKfPPKNS0_12StencilScopeEjPv
jJ:__ZN9dmPhysics11DebugDraw3DC2EPNS_14DebugCallbacksE
vE:__GLOBAL__sub_I_camera_ddf_cpp
Xka:__ZN7dmInputL20ResetGamepadBindingsEPNS_7BindingEPNS_14GamepadBindingEj
qN:__ZN21btCollisionDispatcher22freeCollisionAlgorithmEPv
uo:__ZN12dmGameObject10LuaPushVarEP9lua_StateRKNS_11PropertyVarE
vna:__ZN7dmCrypt7DecryptENS_9AlgorithmEPhjPKhj
Vl:__ZN12dmGameObject10CollectionC2EPN10dmResource16SResourceFactoryEPNS_8RegisterEj
bva:_TM8uv
TN:__ZN19btSingleRayCallbackD0Ev
Uta:_VP8InitScanline
Wba:_lua_equal
Z3a:_emscripten_glVertexAttribI2i__wrapper
lha:_luaB_loadfile
Xy:__GLOBAL__sub_I_comp_tilegrid_cpp
e4:__ZN8dmScript10PushBufferEP9lua_StateRKNS_10LuaHBufferE
xo:__ZN12dmGameObject27GetComponentUserDataFromLuaEP9lua_StateiPNS_16CollectionHandleEPKcPmPN9dmMessage3URLEPPv
yH:__ZN9dmPhysics18SetLinearDamping2DEPvf
kG:__ZN10dmGraphics19SetRenderTargetSizeEPNS_12RenderTargetEjj
osa:_WebPRescalerInit
Sga:_luaopen_base
ed:_emscripten_glDeleteTextures
J9:_meth_sendto
nG:__ZN10dmGraphics21GetTextureStatusFlagsEPNS_7TextureE
r2a:_emscripten_glGenBuffers__wrapper
yca:_lua_setfield
gea:_statement
K_a:___muldi3
fLa:_ssl_parse_certificate_verify
ZDa:__ZN7dmCrashL17Crash_SetFilePathEP9lua_State
BHa:_rsa_verify_wrap
rQa:_ecdsa_verify_restartable
lLa:_mbedtls_ssl_parse_change_cipher_spec
ZW:__ZNK11b2RopeJoint16GetReactionForceEf
Xv:__ZN12dmGameSystem16RenderSpineNodesEPN5dmGui5SceneEPKNS0_11RenderEntryEPKN10Vectormath3Aos7Matrix4EPKfPPKNS0_12StencilScopeEjPv
$d:_emscripten_glGetInfoLogARB
Yk:__ZN8dmEngine4StepEPNS_6EngineE
_ea:_LoadFunction
yha:_luaB_type
cs:__ZN10dmResource27NewArchiveIndexWithResourceEPNS_8ManifestEPKhjPKN17dmResourceArchive18LiveUpdateResourceEPKcRPNS4_12ArchiveIndexE
BLa:_ssl_handshake_params_init
y6:__ZN8dmScript16DeleteTimerWorldEPNS_10TimerWorldE
Xo:__ZN12dmGameObject13Script_DeleteEP9lua_State
nha:_luaB_loadstring
Caa:_buffer_isempty
_H:__ZN9dmPhysics30ProcessRayCastResultCallback3D15addSingleResultERN16btCollisionWorld14LocalRayResultEb
d2a:_emscripten_glUniform3f__wrapper
Ng:_getnameinfo
a6:__ZN8dmScript15Sys_GetSaveFileEP9lua_State
Vsa:__ZN19dmConditionVariable4WaitEPNS_17ConditionVariableEPN7dmMutex5MutexE
XAa:__ZN5dmGui8LuaSetIdEP9lua_State
aq:__ZN11dmHashTableImtE5EraseEm
PAa:__ZN5dmGui9NewScriptEPNS_7ContextE
wC:__ZN12dmGameSystem21FactoryComp_GetStatusEP9lua_State
fBa:__ZN5dmGui14LuaSetPositionEP9lua_State
aV:__ZNK13b2CircleShape13GetChildCountEv
zl:_FacebookExt
Qj:FUNCTION_TABLE_iii
OX:__ZN7b2WorldD2Ev
Cna:__ZN4dLib11IsDebugModeEv
a0a:dynCall_viiiiii
$$a:dynCall_viiiiif
b_a:__ZNK10__cxxabiv116__shim_type_info5noop2Ev
Tka:__ZN11dmHashTableIyN7dmInput6ActionEE11SetCapacityEjj
bi:_glVertexAttribPointer
cp:__ZN12dmGameObjectL20ScriptInstance_indexEP9lua_State
k0:__ZN8dmRender20GetMaterialUserData1EPNS_8MaterialE
Lx:__ZN12dmGameSystem17GetRenderConstantEPNS_19CompRenderConstantsEyPPN8dmRender8ConstantE
nL:__ZN20btAxisSweep3InternalItED2Ev
a9:_meth_getfamily
LZa:_ldexp
jg:_emscripten_glVertexAttribI2iv
DB:__ZN12dmGameSystem20ResSpineModelDestroyERKN10dmResource21ResourceDestroyParamsE
zga:_luaK_prefix
vYa:_decfloat
koa:_dmHashReverse64
Tx:__ZN12dmGameSystem15CompSoundCreateERKN12dmGameObject21ComponentCreateParamsE
ZA:__ZN12dmGameSystem20ResParticleFXPreloadERKN10dmResource21ResourcePreloadParamsE
c:HEAP32
Sl:__ZN12dmGameObject13ComponentTypeC2Ev
WJa:_ssl_swap_epochs
jQ:__ZNK10btBoxShape9getVertexEiR9btVector3
ug:_emscripten_glVertexAttribI4ubv
EMa:_x509_profile_check_key
Hra:__ZN5dmSys16GetResourcesPathEiPPcS0_j
zD:__ZN12dmGameSystemL12Sound_GetRMSEP9lua_State
YV:__ZN6b2DrawD0Ev
F5a:_emscripten_glBlitFramebuffer__wrapper
TU:__GLOBAL__sub_I_btQuickprof_cpp
KG:__ZN10dmGraphics15JobQueueIsAsyncEv
u$:__ZN8dmRender18NewDisplayProfilesEv
NW:__ZNK15b2RevoluteJoint13GetJointSpeedEv
Q1a:_emscripten_glClear__wrapper
xY:__ZNK20b2SeparationFunction17FindMinSeparationEPiS0_f
S1a:_emscripten_glDepthMask__wrapper
uHa:_mbedtls_pk_rsa
UNa:_mbedtls_int_div_int
mD:__ZN12dmGameSystem22ScriptResourceRegisterERKNS_16ScriptLibContextE
yt:__ZN10dmResource7MapFileEPKcRPvRj
nH:__ZN9dmPhysics24SetCollisionObjectFilterEPvjjtt
XUa:_mbedtls_chacha20_init
Bz:__ZN12dmGameSystem17ResCameraRecreateERKN10dmResource22ResourceRecreateParamsE
tga:_luaK_exp2RK
x$a:dynCall_iiiiiiiii
UM:__ZN28btHashedOverlappingPairCache18hasDeferredRemovalEv
XY:__ZN22b2GridAndCircleContact7DestroyEP9b2ContactP16b2BlockAllocator
i9:_meth_receive
zy:__ZN12dmGameSystemL24UpdateIKPositionCallbackEPN5dmRig8IKTargetE
dta:__ZN16dmConnectionPool16GetSSLConnectionEPNS_14ConnectionPoolEj
_r:__ZN10dmResource19ManifestLoadMessageEPhjRPNS_8ManifestE
Rk:__ZN8dmEngine13OnWindowCloseEPv
nBa:__ZN5dmGui12LuaSetShadowEP9lua_State
IX:__ZN9b2Fixture13CreateProxiesEP12b2BroadPhaseRK11b2Transform
J:Math_exp
bz:__ZN12dmGameSystem15SetLayerVisibleEPNS_17TileGridComponentEjb
Zja:_ll_loadfunc
wr:__ZN5dmDDF11LoadContext12AllocMessageEPKNS_10DescriptorE
yua:_TransformAC3
SMa:_x509_check_wildcard
zha:_luaB_unpack
xba:_opt_set_ip6_add_membership
ZUa:_mbedtls_chacha20_setkey
$Ha:_mbedtls_pk_ec
Wj:FUNCTION_TABLE_iiiiiiii
Pb:__inet_pton6_raw
Bx:__ZN12dmGameSystemL18RenderListDispatchERKN8dmRender24RenderListDispatchParamsE_2264
ZG:__ZN9dmPhysics10NewWorld2DEPNS_9Context2DERKNS_14NewWorldParamsE
JA:__ZN12dmGameSystem17ResMaterialCreateERKN10dmResource20ResourceCreateParamsE
NKa:_ssl_bitmask_set
MX:__ZN9b2Fixture13SetFilterDataERK8b2Filteri
VDa:__ZN7dmCrash13GetModuleAddrEij
ac:_dmSysGetApplicationPath
GGa:__ZN12dmSoundCodec10NewDecoderEPNS_12CodecContextENS_6FormatEPKvjPPNS_7DecoderE
oF:__ZN10dmGraphics24GetDefaultTextureFiltersEPNS_7ContextERjS2_
Xha:_io_pclose
VAa:__ZN5dmGui8LuaGetIdEP9lua_State
Ju:__ZN12dmGameSystemL16GetGroupBitIndexEPNS_14CollisionWorldEy
yYa:_copysignl
s6:__ZN8dmScript10CheckTableEP9lua_StatePcji
Ica:_lua_status
hMa:_mbedtls_x509_crt_init
T0:__ZN8dmRender11AddToRenderEPNS_13RenderContextEPNS_12RenderObjectE
vKa:_ssl_check_hs_header
NO:__ZN26btBoxBoxCollisionAlgorithm10CreateFunc24CreateCollisionAlgorithmER36btCollisionAlgorithmConstructionInfoP17btCollisionObjectS4_
fwa:_WebPYuv444ToRgb565C
XMa:_aes_gen_tables
Mw:__ZN12dmGameSystem20CompLightDeleteWorldERKN12dmGameObject26ComponentDeleteWorldParamsE
aS:__ZN27btContinuousConvexCollisionD0Ev
JVa:___syscall_ret
S2a:_emscripten_glDisablei__wrapper
Sia:_math_sinh
X0:__ZN8dmRender14DrawRenderListEPNS_13RenderContextEPNS_9PredicateEPNS_19NamedConstantBufferE
qpa:__ZL20stbi__parse_png_fileP9stbi__pngii
Jh:_glGetShaderInfoLog
jta:_WebPFlipBuffer
zp:__ZN12dmGameObject14ResAnimDestroyERKN10dmResource21ResourceDestroyParamsE
Gg:_emscripten_set_main_loop_timing
sJa:_mbedtls_net_recv
DS:__ZN25btTriangleRaycastCallbackD0Ev
yHa:_mbedtls_pk_get_type
kM:__ZNK16btDbvtBroadphase23getOverlappingPairCacheEv
dXa:_sn_write
s$a:dynCall_iiii
hPa:_gcm_ctx_free
jPa:_camellia_crypt_cbc_wrap
VT:__ZN22btCompoundLeafCallback17ProcessChildShapeEP16btCollisionShapei
le:_emscripten_glGetString
p$a:dynCall_iifif
RIa:_mbedtls_rsa_validate_crt
b7:__ZN8dmScriptL14Quat_RotationXEP9lua_State
a5:__ZN11dmHashTableIyiE5EraseEy
$4a:_emscripten_glDrawElementsInstanced__wrapper
Hxa:__ZN5dmGui8NewSceneEPNS_7ContextEPKNS_14NewSceneParamsE
nx:__ZN12dmGameSystem20CompModelSetPropertyERKN12dmGameObject26ComponentSetPropertyParamsE
l0a:b4
m0a:b5
n0a:b6
o0a:b7
h0a:b0
i0a:b1
j0a:b2
k0a:b3
ZJa:_mbedtls_ssl_write_record
p0a:b8
q0a:b9
MYa:_fcntl
Ira:__ZN5dmSys10GetLogPathEPcj
HO:__ZN31btDefaultCollisionConfiguration16getSimplexSolverEv
AL:__ZN20btAxisSweep3InternalItE10printStatsEv
nP:__ZN16btManifoldResultC2EP17btCollisionObjectS1_
H5a:_emscripten_glTexSubImage3D__wrapper
tH:__ZN9dmPhysics12ApplyForce2DEPNS_9Context2DEPvRKN10Vectormath3Aos7Vector3ERKNS4_6Point3E
bka:__ZN11dmExtension6ParamsC2Ev
Am:__ZNSt3__227__insertion_sort_incompleteIRN12dmGameObject21ComponentTypeSortPredEPtEEbT0_S5_T_
Rja:_gctm
fe:_emscripten_glGetProgramiv
dCa:__ZN5dmGuiL17LuaSetTextureDataEP9lua_State
dC:__ZN12dmGameSystem23ResVertexProgramPreloadERKN10dmResource21ResourcePreloadParamsE
Bla:__ZNSt3__227__insertion_sort_incompleteIRN10dmParticle8SortPredEPNS1_8ParticleEEEbT0_S6_T_
Up:__ZN12dmGameObject16CompAnimNewWorldERKNS_23ComponentNewWorldParamsE
tla:__ZN10dmParticle9ApplyDragER7dmArrayINS_8ParticleEEPNS_8PropertyEPN13dmParticleDDF8ModifierERKN10Vectormath3Aos4QuatEff
Iba:_lua_newthread
xra:__ZN11dmHashTableIjPKcE11SetCapacityEjj
Hn:__ZN12dmGameObject13DispatchInputEPNS_16CollectionHandleEPNS_11InputActionEj
iJ:__ZN12btIDebugDraw10drawSphereEfRK11btTransformRK9btVector3
Dya:__ZN5dmGui9InitSceneEPNS_5SceneE
ZNa:_mbedtls_mpi_write_binary_le
jD:__ZN12dmGameSystemL23Physics_SetFlipInternalEP9lua_Stateb
aaa:_socket_sendto
NE:__ZN10dmGraphics16GetShaderProgramEPNS_7ContextEPNS_10ShaderDescE
gca:_lua_pushnumber
Wha:_io_noclose
FGa:__ZN12dmSoundCodec6DeleteEPNS_12CodecContextE
gY:__ZN12b2BroadPhaseD2Ev
Pza:__ZN5dmGui11SetNodeFontEPNS_5SceneEjy
bNa:_mbedtls_aes_crypt_cfb128
Z1:__ZN8dmRender29InitializeRenderScriptContextERNS_19RenderScriptContextEPN8dmScript7ContextEj
CH:__ZN9dmPhysics16RequestRayCast2DEPNS_7World2DERKNS_14RayCastRequestE
GS:__ZN28btTriangleConvexcastCallback15processTriangleEP9btVector3ii
un:__ZN12dmGameObject11DeleteBonesEPNS_8InstanceE
h5:__ZN8dmScriptL13Script_concatEP9lua_State
uf:_emscripten_glTexSubImage2D
wT:__ZN12btDispatcherD2Ev
Mxa:__ZN11dmHashTableIytE11SetCapacityEjj
Lia:_math_max
qMa:_x509_get_ext_key_usage
nfa:_luaL_argerror
hFa:__ZN7dmSound12NewSoundDataEPKvjNS_13SoundDataTypeEPPNS_9SoundDataEy
PX:__ZN7b2World18SetContactListenerEP17b2ContactListener
zDa:__ZN5dmGuiL35GuiScriptGetInstanceContextTableRefEP9lua_State
AV:__ZN11b2GridShape13ClearCellDataEv
mja:_maxn
up:__ZN12dmGameObject20DeleteScriptInstanceEPNS_14ScriptInstanceE
cW:__ZNK7b2Mat3315GetSymInverse33EPS_
Mea:_newkey
D$:__ZN11dmHashTableIjN8dmRender5GlyphEE3PutEjRKS1_
Kta:_EmitAlphaYUV
iwa:_WebPSamplerProcessPlane
Nxa:__ZN11dmHashTableIytE3PutEyRKt
aO:__ZN12btConvexCast10CastResult9DebugDrawEf
Kra:__ZN5dmSys13GetSystemInfoEPNS_10SystemInfoE
RAa:__ZN5dmGui9SetScriptEPNS_6ScriptEPN8dmLuaDDF9LuaSourceE
jUa:_ssl_write_alpn_ext
h8:__ZN8dmScriptL10Vector_lenEP9lua_State
VRa:_mbedtls_hmac_drbg_update_ret
gua:_VP8LDecodeHeader
CU:__ZN15btGjkConvexCast16calcTimeOfImpactERK11btTransformS2_S2_S2_RN12btConvexCast10CastResultE
K0a:_emscripten_glGetAttribLocation__wrapper
JK:__ZN34btClosestNotMeConvexResultCallback15addSingleResultERN16btCollisionWorld17LocalConvexResultEb
lr:__ZN5dmDDF7Message9AddStringEPNS_11LoadContextEPKNS_15FieldDescriptorEPKci
TZ:__ZNK12b2WheelJoint10GetAnchorAEv
epa:__ZN12dmHttpClient4PostEPNS_6ClientEPKc
sJ:__ZN35btSequentialImpulseConstraintSolverD2Ev
uOa:_add_zeros_and_len_padding
V4:__ZN8dmScript20InitializeExtensionsEPNS_7ContextE
Uh:_glStencilMask
cwa:_WebPYuv444ToBgraC
Fl:__ZN8dmRecord6DeleteEPNS_8RecorderE
ARa:_ecp_mod_p192k1
rpa:__ZL20stbi__convert_formatPhiijj
be:_emscripten_glGetIntegerv
jP:__ZN13btGhostObject31removeOverlappingObjectInternalEP17btBroadphaseProxyP12btDispatcherS1_
LG:__GLOBAL__sub_I_graphics_ddf_cpp
Vu:__ZN12dmGameSystem25CompCollisionObjectUpdateERKN12dmGameObject22ComponentsUpdateParamsERNS0_22ComponentsUpdateResultE
ET:__ZN26btBoxBoxCollisionAlgorithmD2Ev
Dr:__ZN5dmDDF11LoadContext14GetMemoryUsageEv
SVa:___expo2
Os:__ZN10dmResource7GetPathEPNS_16SResourceFactoryEPKvPy
$ka:__ZN11dmHashTableIjN7dmInput13GamepadConfigEE3PutEjRKS1_
y$:__ZN8dmRender21GetDisplayProfileDescEPNS_15DisplayProfilesEyRNS_18DisplayProfileDescE
Gt:__ZN16dmBlockAllocator13CreateContextEv
fz:__ZN12dmGameSystemL14CreateTileGridEPNS_17TileGridComponentE
wj:emscriptenWebGLComputeImageSize
sWa:_recvfrom
Twa:_WebPSafeCalloc
Rda:_luaC_fullgc
mla:__ZN10dmParticle13ReHashEmitterEPNS_7EmitterE
xt:__ZN11dmLoadQueue8FreeLoadEPNS_5QueueEPNS_7RequestE
zTa:_ssl_write_client_key_exchange
u5:__ZN8dmScript14InitializeHttpEPNS_7ContextE
yTa:_ssl_parse_server_hello_done
Fm:__ZN12dmGameObject17ReleaseIdentifierEPNS_10CollectionEPNS_8InstanceE
uoa:__ZN11dmHttpCache5CloseEPNS_5CacheE
Qw:__ZN12dmGameSystem15CompLightUpdateERKN12dmGameObject22ComponentsUpdateParamsERNS0_22ComponentsUpdateResultE
LR:__ZNK23btPolyhedralConvexShape49batchedUnitVectorGetSupportingVertexWithoutMarginEPK9btVector3PS0_i
Mb:__inet_ntop4_raw
kua:_WebPMultARGBRows
bM:__ZN16btDbvtBroadphaseD0Ev
LS:__ZNK15btTriangleShape37localGetSupportingVertexWithoutMarginERK9btVector3
iua:_WebPMultARGBRowC
sDa:__ZN5dmGuiL12NodeProxy_eqEP9lua_State
Zsa:__ZN16dmConnectionPoolL7DoCloseEPNS_14ConnectionPoolEPNS_10ConnectionE
_2a:_emscripten_glVertexAttribI4iv__wrapper
UC:__ZN12dmGameSystem22ParticleFX_SetConstantEP9lua_State
hF:__ZN10dmGraphics20GetWindowRefreshRateEPNS_7ContextE
KN:__ZN16btCollisionWorld18addCollisionObjectEP17btCollisionObjectss
RHa:_ecdsa_sign_wrap
mIa:_mbedtls_rsa_set_padding
cU:__ZZN33btConvexConcaveCollisionAlgorithm21calculateTimeOfImpactEP17btCollisionObjectS1_RK16btDispatcherInfoP16btManifoldResultEN31LocalTriangleSphereCastCallbackD0Ev
eq:__ZN12dmGameObject16CancelAnimationsEPNS_16CollectionHandleEPNS_8InstanceEyy
JJa:_mbedtls_ssl_psk_derive_premaster
NQa:_mbedtls_ecp_is_zero
Bn:__ZN12dmGameObject20GetWorldUniformScaleEPNS_8InstanceE
$u:__ZN12dmGameSystem30CompCollisionObjectSetPropertyERKN12dmGameObject26ComponentSetPropertyParamsE
lIa:_mbedtls_rsa_init
Ata:_EmitRescaledRGB
j4:__ZN8dmScript14GetStreamValueIsEEdPvi
W4:__ZN8dmScriptL28InternalInitializeExtensionsEPNS_7ContextE
TZa:__ZnwmRKSt9nothrow_t
a3:__ZN11dmHashTableImbE11SetCapacityEjj
b:HEAP16
RK:__ZNK11btRigidBody28calculateSerializeBufferSizeEv
Mqa:__ZN9dmProfile13AllocateScopeEPKc
_S:__ZN22btSubsimplexConvexCast16calcTimeOfImpactERK11btTransformS2_S2_S2_RN12btConvexCast10CastResultE
ASa:_sha1_clone_wrap
Is:__ZN10dmResource7ReleaseEPNS_16SResourceFactoryEPv
dq:__ZN12dmGameObjectL13PlayAnimationEPNS_9AnimWorldEPNS_8InstanceEyyNS_8PlaybackEPfffN8dmEasing5CurveEffPFvS3_yybPvS8_ES8_S8_b
BZ:__ZN13b2PulleyJoint4DumpEv
fj:_pthread_getspecific
eO:__ZN17DebugDrawcallbackD2Ev
Zl:__ZN12dmGameObject28GetCollectionDefaultCapacityEPNS_8RegisterE
i4:__ZN8dmScript14GetStreamValueIiEEdPvi
VF:__ZN10dmGraphics13ReloadProgramEPNS_7ContextEmmm
RJ:__ZN16btCollisionWorld14setDebugDrawerEP12btIDebugDraw
xS:__ZN20btPersistentManifold14clearUserCacheER15btManifoldPoint
uMa:_mbedtls_x509_parse_subject_alt_name
Mka:__ZN5dmHID12HideKeyboardEPNS_7ContextE
Sta:_VP8DecodeMB
g$:__ZN11b2GearJointD0Ev
Cda:_luaF_newproto
yd:_emscripten_glEndConditionalRender
PCa:__ZN5dmGuiL23LuaGetPerimeterVerticesEP9lua_State
aJa:_mbedtls_sha256_init
_ca:_luaG_checkcode
BNa:_mbedtls_mpi_read_string
F:Math_acos
Js:__ZN11dmHashTableImyE5EraseEm
D3:__ZN8dmScript21GetScriptWorldContextEPNS_11ScriptWorldE
iA:__ZN12dmGameSystem24ResFragmentProgramCreateERKN10dmResource20ResourceCreateParamsE
yq:__ZN11dmHashTableIyPKN5dmDDF10DescriptorEE11SetCapacityEjj
qI:__ZN9dmPhysics19GetAngularDamping3DEPv
fia:_io_type
_Y:__ZN23b2GridAndPolygonContact6CreateEP9b2FixtureiS1_iP16b2BlockAllocator
jja:_foreach
Dza:__ZN5dmGui13SetNodeIsBoneEPNS_5SceneEjb
Rx:__ZN12dmGameSystem17CompSoundNewWorldERKN12dmGameObject23ComponentNewWorldParamsE
VV:__ZN16b2BlockAllocator8AllocateEi
kr:__ZN5dmDDF7Message15ReadStringFieldEPNS_11LoadContextENS_8WireTypeEPKNS_15FieldDescriptorEPNS_11InputBufferE
WZa:__ZdaPv
Z_:__ZN15b2FrictionJoint23InitVelocityConstraintsERK12b2SolverData
rW:__ZNK16b2PrismaticJoint19GetJointTranslationEv
VCa:__ZN5dmGuiL13LuaGetLeadingEP9lua_State
$ca:_luaG_typeerror
Nx:__ZN12dmGameSystem19ClearRenderConstantEPNS_19CompRenderConstantsEy
nM:__ZN16btDbvtBroadphase10printStatsEv
_p:__ZN12dmGameObject14CompAnimUpdateERKNS_22ComponentsUpdateParamsERNS_22ComponentsUpdateResultE
C2a:_emscripten_glAttachShader__wrapper
DD:__ZN12dmGameSystemL15Sound_GetGroupsEP9lua_State
Uia:_math_sqrt
Hqa:__ZN11dmHashTableImPKcE3PutEmRKS1_
$Wa:_wcrtomb
b_:__ZN8b2IslandC2EiiiP16b2StackAllocatorP17b2ContactListener
Kv:__ZN12dmGameSystem7SetNodeEPN5dmGui5SceneEjPKN8dmGuiDDF8NodeDescE
PZ:__ZN11b2WeldJoint23InitVelocityConstraintsERK12b2SolverData
V9:_socket_bind
Dx:__ZN12dmGameSystem22CompParticleFXOnReloadERKN12dmGameObject23ComponentOnReloadParamsE
tZ:__ZN12b2MouseJoint23InitVelocityConstraintsERK12b2SolverData
ig:_emscripten_glVertexAttribI2i
qD:__ZN12dmGameSystemL16CheckTableNumberEP9lua_StateiPKc
Vk:__ZN8dmEngineL13OnWindowFocusEPvj
gsa:__ZN6dmZlib13InflateBufferEPKvjPvPFbS2_S1_jE
G_:__ZN15b2ContactSolver24SolvePositionConstraintsEv
zo:__ZN12dmGameObject18GetInstanceFromLuaEP9lua_State
Dna:__ZN4dLib17FeaturesSupportedEj
E4:__ZN8dmScriptL18CopyStreamInternalEPNS_12BufferStreamEjPKS0_jj
z1:__ZN8dmRender26RenderScript_EnableTextureEP9lua_State
Voa:__ZN12dmHttpClient6DeleteEPNS_6ClientE
moa:__ZN11dmHashTableIy16ReverseHashEntryE5EraseEy
Gta:_EmitSampledRGB
pD:__ZN12dmGameSystemL10SetTextureEP9lua_State
o3:__ZN8dmScript11SetInstanceEP9lua_State
Xx:__ZN12dmGameSystem18CompSoundOnMessageERKN12dmGameObject24ComponentOnMessageParamsE
EW:__ZNK15b2RevoluteJoint16GetReactionForceEf
bK:__ZNK23btDiscreteDynamicsWorld10getGravityEv
pr:__ZN5dmDDF7Message10SubMessageEPKNS_15FieldDescriptorE
u8:__ZN8dmScriptL6WriterEPvPKvj
_q:__ZN5dmDDF11InputBuffer9ReadFloatEPf
$xa:__ZN5dmGui20DeleteDynamicTextureEPNS_5SceneEy
qRa:_ecp_normalize_mxz
kya:__ZN5dmGui11GetLayoutIdEPNS_5SceneEtRy
jJa:_mbedtls_sha512_free
HZ:__ZNK13b2PulleyJoint16GetGroundAnchorAEv
PC:__GLOBAL__sub_I_script_particlefx_cpp
Ym:__ZN12dmGameObjectL16DispatchMessagesEPNS_10CollectionEPyj
uIa:_rsa_prepare_blinding
sq:__ZN12dmGameObject18CompScriptOnReloadERKNS_23ComponentOnReloadParamsE
BQa:_mbedtls_ecp_curve_info_from_grp_id
lga:_luaK_setreturns
aMa:_mbedtls_ssl_pk_alg_from_sig
jB:__ZN12dmGameSystem23ResRenderScriptRecreateERKN10dmResource22ResourceRecreateParamsE
iQ:__ZNK10btBoxShape7getEdgeEiR9btVector3S1_
Nc:_emscripten_glClearStencil
CSa:_sha224_starts_wrap
tya:__ZN5dmGui36CalculateNodeTransformAndAlphaCachedEPNS_5SceneEPNS_12InternalNodeENS_27CalculateNodeTransformFlagsERN10Vectormath3Aos7Matrix4ERf
PN:__ZN9btHashMapI9btHashPtrP16btCollisionShapeE6insertERKS0_RKS2_
Z9:_socket_connect
R$:__ZN8dmRender13LayoutMetricsclEPKcj
Pga:_read_long_string
kT:__ZN20btCollisionAlgorithmD0Ev
Ul:__ZN12dmGameObject11NewRegisterEv
Yg:_glCheckFramebufferStatus
aNa:_mbedtls_aes_crypt_cbc
JRa:_ecp_mpi_set1
Kxa:__ZN11dmHashTableIyPvE11SetCapacityEjj
t6:__ZN8dmScript18PushTableLogFormatERNS_15PushTableLoggerEPKcz
eUa:_ssl_write_supported_point_formats_ext
Po:__ZN12dmGameObject27Script_GetWorldScaleUniformEP9lua_State
M_:__ZNK15b2DistanceJoint17GetReactionTorqueEf
lv:__ZN12dmGameSystem32CompCollisionObjectGetIdentifierEPv
mT:__ZN6btDbvtD2Ev
e$:__ZNK11b2GearJoint17GetReactionTorqueEf
oja:_tremove
hha:_luaB_error
M_a:_i64Subtract
oVa:_mbedtls_chachapoly_auth_decrypt
ni:_glfwGetMouseButton
CV:__ZN14b2PolygonShapeD0Ev
WRa:_mbedtls_hmac_drbg_seed_buf
wBa:__ZN5dmGui14LuaCancelSpineEP9lua_State
zv:__ZN12dmGameSystem22CompFactoryAddToUpdateERKN12dmGameObject26ComponentAddToUpdateParamsE
ZWa:_frexpl
FS:__ZN28btTriangleConvexcastCallbackD0Ev
Dca:_lua_call
Cz:__ZN12dmGameSystem27ResCollectionFactoryPreloadERKN10dmResource21ResourcePreloadParamsE
MN:__ZN16btCollisionWorld33performDiscreteCollisionDetectionEv
Kua:_SimpleHFilter16i
qS:__ZN33btMinkowskiPenetrationDepthSolverD0Ev
hOa:_mbedtls_mpi_is_prime_ext
hm:__ZN12dmGameObjectL15FinalComponentsEPNS_10CollectionEPNS_8InstanceE
Kp:__ZN12dmGameObjectL16AcquireResourcesEPN10dmResource16SResourceFactoryEPNS_8RegisterEPN15dmGameObjectDDF13PrototypeDescEPNS_9PrototypeEPKc
Aea:_luaE_freethread
r5a:_emscripten_glGetActiveUniform__wrapper
QDa:__ZN7dmCrash12GetUserFieldEij
pT:__ZN6btDbvt19optimizeIncrementalEi
qSa:_md5_finish_wrap
MZ:__ZNK11b2WeldJoint17GetReactionTorqueEf
kB:__ZN12dmGameSystem16AcquireResourcesEPN10dmResource16SResourceFactoryEPNS_16RigSceneResourceEPKcb
hda:_luaD_reallocstack
Pc:_emscripten_glColorMask
So:__ZN12dmGameObject15LuaCurveReleaseEPN8dmEasing5CurveE
CJ:__ZN35btSequentialImpulseConstraintSolver20solveSingleIterationEiPP17btCollisionObjectiPP20btPersistentManifoldiPP17btTypedConstraintiRK19btContactSolverInfoP12btIDebugDrawP12btStackAlloc
yh:_glFramebufferTexture2D
Pr:__ZN5dmDDF12OutputStream11WriteStringEPKc
E9:_meth_getpeername_7481
qma:__ZN5dmRig7SetMeshEPNS_11RigInstanceEy
OYa:___memrchr
u2a:_emscripten_glDeleteRenderbuffers__wrapper
wU:__ZN31btConvexPlaneCollisionAlgorithm16processCollisionEP17btCollisionObjectS1_RK16btDispatcherInfoP16btManifoldResult
G8:_bit_rol
vRa:_mbedtls_ecp_mul_shortcuts
x5:__ZN8dmScript15InitializeImageEP9lua_State
H8:_bit_ror
Eua:_HFilter16i
jma:__ZN5dmRig10RigContextD2Ev
We:_emscripten_glReleaseShaderCompiler
H7:__ZN8dmScriptL13Quat_tostringEP9lua_State
Hq:__ZN5dmDDF17SaveMessageToFileEPKvPKNS_10DescriptorEPKc
uE:__ZN12dmGameSystem18PlatformGetDimModeEv
xp:__ZN12dmGameObject7LuaLoadEPN10dmResource16SResourceFactoryEPN8dmScript7ContextEPN8dmLuaDDF9LuaModuleE
Vg:_glBlendFunc
Sw:__GLOBAL__sub_I_comp_model_cpp
Eu:__ZN12dmGameSystem15GetLSBGroupHashEPvt
DG:__ZN10dmGraphics14SetStencilFuncEPNS_7ContextEjjj
KTa:_ssl_parse_server_dh_params
sia:_io_gc
eS:__ZN16btPointCollector20setShapeIdentifiersBEii
FPa:_mbedtls_des3_set2key_enc
DV:__ZNK14b2PolygonShape5CloneEP16b2BlockAllocator
xL:__ZNK20btAxisSweep3InternalItE23getOverlappingPairCacheEv
uxa:__ZN5dmGui7GetNodeEPNS_5SceneEj
lJa:_mbedtls_sha512_starts_ret
q4a:_emscripten_glUniformMatrix2fv__wrapper
mj:_pthread_mutexattr_settype
xoa:__ZN11dmHttpCache5BeginEPNS_5CacheEPKcS3_PPNS_12CacheCreatorE
GVa:___stdio_close
oza:__ZN5dmGui19GetNodeTextTrackingEPNS_5SceneEj
Jm:__ZN12dmGameObject19AssignInstanceIndexEjPNS_8InstanceE
wZa:_tmpnam
v2:__ZN8dmRender35SetRenderScriptInstanceRenderScriptEPNS_20RenderScriptInstanceEPNS_12RenderScriptE
Uc:_emscripten_glCompressedTexSubImage2D
jT:__ZN20btCollisionAlgorithmC2ERK36btCollisionAlgorithmConstructionInfo
Yqa:__ZN8dmSocket10InitializeEv
cS:__ZN16btPointCollectorD0Ev
TM:__ZN28btHashedOverlappingPairCache8findPairEP17btBroadphaseProxyS1_
$na:_dmHashString64
Al:__ZN14dmFacebookStubL22Facebook_AppInitializeEPN11dmExtension9AppParamsE
MU:__ZN12gjkepa2_impl3GJK13EncloseOriginEv
fR:__ZN17btConvexHullShapeD0Ev
aCa:__ZN5dmGuiL17LuaCancelFlipbookEP9lua_State
LRa:_mbedtls_gcm_setkey
Bwa:_VP8LInitBitReader
fka:__ZN11dmExtension9PreRenderEPNS_6ParamsE
tTa:_mbedtls_ssl_handshake_client_step
lu:__GLOBAL__sub_I_comp_collection_proxy_cpp
nAa:__ZN5dmGui14SetNodeXAnchorEPNS_5SceneEjNS_7XAnchorE
eE:__ZN12dmGameSystem21ScriptTileMapRegisterERKNS_16ScriptLibContextE
JP:__ZN11btUnionFindD2Ev
x0:__ZN8dmRender25ConvertMaterialTagsToMaskEPyj
tR:__ZNK17btConvexHullShape8getPlaneER9btVector3S1_i
yB:__ZN12dmGameSystem18ResSoundDataCreateERKN10dmResource20ResourceCreateParamsE
rn:__ZN12dmGameObject6IsBoneEPNS_8InstanceE
xZ:__ZNK13b2PulleyJoint10GetAnchorAEv
dFa:__ZN7dmSound11SoundSystemC2Ev
cva:_VE8uv
Ic:_emscripten_glClearBufferiv
j_:__ZN12b2EPCollider24ComputePolygonSeparationEv
R5:__ZN8dmScript7PushURLEP9lua_StateRKN9dmMessage3URLE
N1:__ZN8dmRender25RenderScript_SetDepthFuncEP9lua_State
vq:__ZN12dmGameObjectL16FindPropertyNameEPN15dmPropertiesDDF20PropertyDeclarationsEyPPKcPNS_12PropertyTypeEPPyPbPj
Pi:_llvm_fabs_f32
Iw:__ZN12dmGameSystemL28CompLabelGetConstantCallbackEPvyPPN8dmRender8ConstantE
ZH:__ZNK16btCollisionWorld17RayResultCallback14needsCollisionEP17btBroadphaseProxy
J_a:___muldsi3
rja:_auxsort
DA:__ZN12dmGameSystem15ResLabelDestroyERKN10dmResource21ResourceDestroyParamsE
Ks:__ZN11dmHashTableIyN10dmResource19SResourceDescriptorEE5EraseEy
kR:__ZNK17btConvexHullShape9serializeEPvP12btSerializer
T8:_global_create
Lf:_emscripten_glUniform3ui
EQa:_mbedtls_ecp_point_init
kga:_luaK_numberK
sGa:__ZN7dmSound18PlatformInitializeEPN12dmConfigFile6ConfigEPKNS_16InitializeParamsE
B_a:__ZNK10__cxxabiv122__base_class_type_info16search_below_dstEPNS_19__dynamic_cast_infoEPKvib
DJa:_ssl_calc_verify_tls_sha256
gq:__ZN12dmGameObject24CancelAnimationCallbacksEPNS_16CollectionHandleEPv
ufa:_luaL_newmetatable
sra:__ZN8dmSocket17SetReceiveTimeoutEiy
bVa:_chacha20_inner_block
G7:__ZN8dmScriptL10Matrix4_eqEP9lua_State
ata:__ZN16dmConnectionPool6ReturnEPNS_14ConnectionPoolEj
CZa:_vprintf
Iva:_Predictor12
Jva:_Predictor13
Gva:_Predictor10
Hva:_Predictor11
Hwa:_VP8LHtreeGroupsNew
ED:__ZN12dmGameSystemL18Sound_GetGroupNameEP9lua_State
a:HEAP8
CAa:__ZN5dmGui15AnimateNodeHashEPNS_5SceneEjyRKN10Vectormath3Aos7Vector4EN8dmEasing5CurveENS_8PlaybackEffPFvS1_jbPvSA_ESA_SA_
rt:__ZN10dmResource17ResourcePreloaderD2Ev
$ta:_VP8LDecodeAlphaHeader
eY:__ZN15b2ContactFilter13ShouldCollideEP9b2FixtureiS1_i
$c:_emscripten_glDeleteFramebuffers
DEa:__ZN12dmLiveUpdate11AsyncUpdateEv
MGa:__ZN12dmSoundCodec15RegisterDecoderEPNS_11DecoderInfoE
kLa:_mbedtls_ssl_write_change_cipher_spec
Haa:_do_nothing
gia:_io_write
gC:__ZN12dmGameSystem24ResVertexProgramRecreateERKN10dmResource22ResourceRecreateParamsE
iH:__ZN9dmPhysics15DeleteHullSet2DEPv
v9:_timeout_meth_settimeout
__:__ZN15b2FrictionJoint24SolveVelocityConstraintsERK12b2SolverData
AUa:_x509_get_current_time
RO:__ZN32btSphereSphereCollisionAlgorithm10CreateFunc24CreateCollisionAlgorithmER36btCollisionAlgorithmConstructionInfoP17btCollisionObjectS4_
Ora:__ZN5dmSys14ResourceExistsEPKc
_D:__ZN12dmGameSystem22SpriteComp_SetConstantEP9lua_State
r2:__ZN8dmRender23NewRenderScriptInstanceEPNS_13RenderContextEPNS_12RenderScriptE
Kea:_resize
EH:__ZN9dmPhysics12SetGravity2DEPNS_7World2DERKN10Vectormath3Aos7Vector3E
OJ:__ZN35btSequentialImpulseConstraintSolverC2Ev
AO:__ZN16btManifoldResult20setShapeIdentifiersBEii
tA:__ZN12dmGameSystem16ReleaseResourcesEPN10dmResource16SResourceFactoryEPNS_16GuiSceneResourceE
ida:_luaD_reallocCI
Psa:_compress_block
rZ:__ZN12b2MouseJoint4DumpEv
I3:__ZN8dmScript17UpdateScriptWorldEPNS_11ScriptWorldEf
kMa:_x509_get_version
ssa:_WebPRescalerExport
Oga:_skip_sep
AA:__ZN12dmGameSystem23ResInputBindingRecreateERKN10dmResource22ResourceRecreateParamsE
nba:_opt_set_ip6_multicast_loop
gR:__ZN17btConvexHullShape15setLocalScalingERK9btVector3
lUa:_mbedtls_x509_get_serial
w_:__ZN15b2CircleContact8EvaluateEP10b2ManifoldRK11b2TransformS4_
T$a:dynCall_viifii
kGa:_stb_vorbis_get_samples_short_interleaved
_s:__ZN17dmResourceArchive17GetInsertionIndexEPNS_21ArchiveIndexContainerEPKhPi
rda:_luaD_pcall
i8:__ZN8dmScriptL12Vector_indexEP9lua_State
Jxa:__ZN11dmHashTableIyN5dmGui14DynamicTextureEE11SetCapacityEjj
Rw:__ZN12dmGameSystem18CompLightOnMessageERKN12dmGameObject24ComponentOnMessageParamsE
Ura:__ZN8dmThread8AllocTlsEv
kk:FUNCTION_TABLE_viffff
owa:_YuvToArgbRow
fqa:__ZN11dmHashTableIyN9dmMessage13MessageSocketEE5EraseEy
rw:__ZN12dmObjectPoolIN12dmGameSystem14LabelComponentEE11SetCapacityEj
kA:__ZN12dmGameSystem26ResFragmentProgramRecreateERKN10dmResource22ResourceRecreateParamsE
oia:_f_read
Pw:__ZN12dmGameSystem20CompLightAddToUpdateERKN12dmGameObject26ComponentAddToUpdateParamsE
cM:__ZN16btDbvtBroadphase11createProxyERK9btVector3S2_iPvssP12btDispatcherS3_
YIa:_mbedtls_internal_sha1_process
Hg:_exit
eca:_lua_topointer
qYa:_store_int_525
H$:__ZN8dmRender18SetFontMapMaterialEPNS_7FontMapEPNS_8MaterialE
Tj:FUNCTION_TABLE_iiiii
JMa:_x509_crt_find_parent
rZa:_remove
iJa:_mbedtls_sha512_init
eAa:__ZN5dmGui18PlayNodeParticlefxEPNS_5SceneEjPN10dmParticle23EmitterStateChangedDataE
Yc:_emscripten_glCreateShader
gha:_luaB_dofile
jv:__ZN12dmGameSystem10SetGravityEPvRKN10Vectormath3Aos7Vector3E
uRa:_mbedtls_ecp_muladd_restartable
_ka:__ZN11dmHashTableIjN7dmInput13GamepadConfigEE11SetCapacityEjj
lH:__ZN9dmPhysics16SetGridShapeHullEPvjjjjNS_9HullFlagsE
xI:__ZN9dmPhysics14ReplaceShape3DEPNS_9Context3DEPvS2_
sIa:_mbedtls_rsa_public
UI:__ZN9dmPhysics11DebugDraw3D8drawLineERK9btVector3S3_S3_
qIa:_mbedtls_rsa_check_pubkey
S4:__ZN8dmScript18RegisterDDFDecoderEPvPFNS_6ResultEP9lua_StatePKN5dmDDF10DescriptorEPKcE
YI:__ZN12btIDebugDraw12drawTriangleERK9btVector3S2_S2_S2_f
r:inf
sj:_system
Jn:__ZN12dmGameObject10GetFactoryEPNS_16CollectionHandleE
Ly:__ZN12dmGameSystem17CompSpriteDestroyERKN12dmGameObject22ComponentDestroyParamsE
J0:__ZN8dmRender15RenderListBeginEPNS_13RenderContextE
Pla:__ZN10dmParticle13LoadResourcesEPNS_9PrototypeEPN13dmParticleDDF10ParticleFXE
o2:__ZN8dmRenderL16LoadRenderScriptEP9lua_StatePN8dmLuaDDF9LuaSourceEPNS_12RenderScriptE
Ko:__ZN12dmGameObject15Script_SetScaleEP9lua_State
hL:__ZN11btRigidBody16addConstraintRefEP17btTypedConstraint
lj:_pthread_mutexattr_init
Mn:__ZN12dmGameObject16GetMessageSocketEPNS_16CollectionHandleE
t5:__ZN8dmScript12Http_RequestEP9lua_State
oCa:__ZN5dmGuiL13LuaSetYAnchorEP9lua_State
C6:__ZN8dmScript10KillTimersEPNS_10TimerWorldEm
fH:__ZN9dmPhysics13NewBoxShape2DEPNS_9Context2DERKN10Vectormath3Aos7Vector3E
nOa:_mbedtls_cipher_free
Qt:__ZN12dmGameSystem15CheckGoInstanceEP9lua_State
kza:__ZN5dmGui16GetNodeLineBreakEPNS_5SceneEj
KCa:__ZN5dmGuiL13LuaResetNodesEP9lua_State
$h:_glUniformMatrix4fv
Vga:_luaB_next
_Oa:_des_setkey_enc_wrap
nK:__ZN23btDiscreteDynamicsWorld13removeVehicleEP17btActionInterface
C:Math_cos
Bca:_lua_setmetatable
rx:__GLOBAL__sub_I_comp_particlefx_cpp
rh:_glDisableVertexAttribArray
wqa:__ZN6dmPath7DirnameEPKcPcj
wHa:_mbedtls_pk_sign_restartable
VPa:_dhm_update_blinding
JS:__ZNK15btTriangleShape21calculateLocalInertiaEfR9btVector3
au:__GLOBAL__sub_I_comp_collection_factory_cpp
Bu:__ZN12dmGameSystem17SetWorldTransformEPvRKN10Vectormath3Aos6Point3ERKNS2_4QuatE
rI:__ZN9dmPhysics19SetAngularDamping3DEPvf
ETa:_mbedtls_ssl_own_cert_12814
Kn:__ZN12dmGameObject10GetFactoryEPNS_8InstanceE
hs:__ZN11dmHashTableIyN10dmResource19SResourceDescriptorEE11SetCapacityEjj
LQ:__ZNK16btCollisionShape28calculateSerializeBufferSizeEv
Ql:__ZN11dmHashTableIyPN12dmGameObject10CollectionEE11SetCapacityEjj
jfa:_luaZ_lookahead
oya:__ZN5dmGui11RenderSceneEPNS_5SceneERKNS_17RenderSceneParamsEPv
$4:__ZN8dmScript11ReleaseHashEP9lua_Statey
Ija:_str_upper
ZL:__ZN15btNullPairCache18hasDeferredRemovalEv
PKa:_ssl_handshake_wrapup_free_hs_transform
Lxa:__ZN11dmHashTableIyPN10dmParticle9PrototypeEE11SetCapacityEjj
v3a:_emscripten_glGetBufferParameteriv__wrapper
bsa:__ZN6dmUtf88NextCharEPPKc
pja:_setn
Nga:_inclinenumber
yN:__ZNK17btCollisionObject28calculateSerializeBufferSizeEv
nj:_pthread_once
ca:invoke_fiiiiiiiiii
UK:__ZN11btRigidBodyC2ERKNS_27btRigidBodyConstructionInfoE
Aka:__ZN5dmHID6GetKeyEPNS_14KeyboardPacketENS_3KeyE
gW:__ZNK16b2PrismaticJoint10GetAnchorAEv
VKa:_ssl_parse_record_header
Cxa:__ZN5dmGui18GetDisplayProfilesEPNS_5SceneE
zLa:_ssl_reset_in_out_pointers
rPa:_aes_crypt_ecb_wrap
EKa:_ssl_consume_current_message
$8:_meth_dirty
PMa:_x509_crt_check_signature
qt:__ZN10dmResource15DeletePreloaderEPNS_17ResourcePreloaderE
tva:_VP8LConvertBGRAToBGR_C
gs:__ZN10dmResourceL11HttpContentEPN12dmHttpClient8ResponseEPviPKvj
$Aa:__ZN5dmGui20LuaAnimationCompleteEPNS_5SceneEjbPvS2_
_ua:_DC16NoLeft
TXa:_cycle
Yna:_dmHashBufferNoReverse64
Rr:__ZN10dmResource16FindResourceTypeEPNS_16SResourceFactoryEPKc
Af:_emscripten_glUniform1iv
OV:__ZN15b2DistanceProxy3SetEPK7b2Shapei
RR:__ZN34btPolyhedralConvexAabbCachingShapeC2Ev
Um:__ZN12dmGameObject5SpawnEPNS_16CollectionHandleEPNS_9PrototypeEPKcyPhjRKN10Vectormath3Aos6Point3ERKNS8_4QuatERKNS8_7Vector3E
$la:__ZN10dmParticle13SetTileSourceEPNS_9PrototypeEjPv
Wd:_emscripten_glGetBufferParameteriv
Nsa:__tr_flush_block
G3a:_emscripten_glUniform4iv__wrapper
C7:__ZN8dmScriptL13Matrix4_indexEP9lua_State
eYa:___unlist_locked_file
dNa:_mbedtls_asn1_get_tag
Zu:__ZN12dmGameSystem27CompCollisionObjectOnReloadERKN12dmGameObject23ComponentOnReloadParamsE
fxa:_GradientUnfilter
yOa:_get_no_padding
Efa:_luaL_callmeta
G$a:dynCall_vffff
cf:_emscripten_glStencilFunc
mO:__ZN16btCollisionWorldC2EP12btDispatcherP21btBroadphaseInterfaceP24btCollisionConfiguration
i0:__ZN8dmRender18SetMaterialSamplerEPNS_8MaterialEyjjjjj
jWa:_strncmp
gqa:__ZN9dmMessageL13DisposeSocketEPNS_13MessageSocketE
hA:__ZN12dmGameSystem25ResFragmentProgramPreloadERKN10dmResource21ResourcePreloadParamsE
zma:__ZN5dmRig7GetPoseEPNS_11RigInstanceE
pX:__ZN6b2Body17SynchronizeSingleEP7b2Shapei
uka:__ZN5dmHID13SetMarkedTextEPNS_7ContextEPc
SL:__ZN15btNullPairCache23getOverlappingPairArrayEv
ys:__ZN10dmResource14InsertResourceEPNS_16SResourceFactoryEPKcyPNS_19SResourceDescriptorE
cN:__ZN28btHashedOverlappingPairCacheC2Ev
yZ:__ZNK13b2PulleyJoint10GetAnchorBEv
v4a:_emscripten_glGetShaderSource__wrapper
cLa:_mbedtls_ssl_parse_certificate
nT:__ZL17recursedeletenodeP6btDbvtP10btDbvtNode
tT:__ZN6btDbvt6updateEP10btDbvtNodeR12btDbvtAabbMm
mra:__ZN8dmSocket6SelectEPNS_8SelectorEi
HN:__ZN16btCollisionWorld14debugDrawWorldEv
oua:_ApplyAlphaMultiply_16b
fJ:__ZN12btIDebugDraw15drawSpherePatchERK9btVector3S2_S2_fffffS2_f
bq:__ZN12dmGameObject7AnimateEPNS_16CollectionHandleEPNS_8InstanceEyyNS_8PlaybackERNS_11PropertyVarEN8dmEasing5CurveEffPFvS3_yybPvS9_ES9_S9_
N3a:_emscripten_glBindAttribLocation__wrapper
_2:__ZN8dmScript13LuaStackCheck5ErrorEPKcz
Sca:_lua_gethookmask
IP:__ZN34btSphereTriangleCollisionAlgorithmC2EP20btPersistentManifoldRK36btCollisionAlgorithmConstructionInfoP17btCollisionObjectS6_b
tp:__ZN12dmGameObjectL22ScriptInstanceGetURLCBEP9lua_StatePN9dmMessage3URLE
AE:__GLOBAL__sub_I_physics_ddf_cpp
rM:__ZN6btDbvt8ICollideD2Ev
E_:__ZN15b2ContactSolver24SolveVelocityConstraintsEv
RQa:_mbedtls_ecp_tls_write_point
x0a:_emscripten_glIsBuffer__wrapper
rP:__ZN25btSimulationIslandManager26storeIslandActivationStateEP16btCollisionWorld
Osa:_build_tree
W$a:dynCall_viiifii
wUa:_mbedtls_x509_get_sig
jOa:_mpi_miller_rabin
xy:__ZN12dmGameSystemL24UpdateIKInstanceCallbackEPN5dmRig8IKTargetE_2487
SUa:_mbedtls_ccm_star_encrypt_and_tag
Maa:_inet_global_tohostname
Oua:_HE4
jba:_opt_set_ip6_unicast_hops
ppa:__ZL22stbi__check_png_headerP13stbi__context
HXa:___lctrans_cur
sK:__ZN23btDiscreteDynamicsWorld26calculateSimulationIslandsEv
eva:_DC8uvNoTop
gD:__ZN12dmGameSystemL18Physics_GetGravityEP9lua_State
CLa:_ssl_update_checksum_start
c_a:__ZNK10__cxxabiv117__class_type_info9can_catchEPKNS_16__shim_type_infoERPv
Ub:_clock
OZ:__ZN11b2WeldJointD0Ev
OL:__ZN15btNullPairCache21removeOverlappingPairEP17btBroadphaseProxyS1_P12btDispatcher
Pj:FUNCTION_TABLE_iifif
$K:__ZN15btTransformUtil22calculateDiffAxisAngleERK11btTransformS2_R9btVector3Rf
CN:__ZN17btCollisionObject18setActivationStateEi
EM:__ZN19BroadphaseRayTester7ProcessEPK10btDbvtNode
fN:__ZN21btCollisionDispatcher13findAlgorithmEP17btCollisionObjectS1_P20btPersistentManifold
PB:__ZN12dmGameSystem20ResTexturePostCreateERKN10dmResource24ResourcePostCreateParamsE
MP:__ZN11btUnionFind11sortIslandsEv
MF:__ZN10dmGraphics10NewProgramEPNS_7ContextEmm
DL:__ZNK20btAxisSweep3InternalItE8quantizeEPtRK9btVector3i
FJa:_ssl_calc_finished_tls_sha384
_x:__ZN12dmObjectPoolIPN12dmGameSystem19SpineModelComponentEE11SetCapacityEj
bSa:_mbedtls_md_free
dK:__ZN23btDiscreteDynamicsWorld12addRigidBodyEP11btRigidBody
OCa:__ZN5dmGuiL23LuaSetPerimeterVerticesEP9lua_State
wNa:_mbedtls_mpi_set_bit
Xk:__ZN8dmEngine16GOActionCallbackEyPN7dmInput6ActionEPv
oz:__ZN12dmGameSystem13GetLayerIndexEPKNS_17TileGridComponentEy
SIa:_mbedtls_rsa_validate_params
fv:__ZN12dmGameSystem12GetJointTypeEPvS0_yRN9dmPhysics9JointTypeE
j5:__ZN8dmScriptL16Script_HashToHexEP9lua_State
Xb:_dmDeviceJSFreeBufferSlots
Eia:_math_exp
wMa:_mbedtls_x509_crt_parse_der
qL:__ZN20btAxisSweep3InternalItE12destroyProxyEP17btBroadphaseProxyP12btDispatcher
ER:__ZN13btConvexShapeC2Ev
ZT:__ZN33btConvexConcaveCollisionAlgorithmD2Ev
aYa:___ofl_add
zAa:__ZN5dmGui12SetNodePivotEPNS_5SceneEjNS_5PivotE
H0:__ZN8dmRender13RenderContextD2Ev
Yl:__ZN12dmGameObject28SetCollectionDefaultCapacityEPNS_8RegisterEj
vH:__ZN9dmPhysics20GetAngularVelocity2DEPNS_9Context2DEPv
wAa:__ZN5dmGui18GetNodeInnerRadiusEPNS_5SceneEj
Via:_math_tanh
na:invoke_iiiiiiii
SA:__ZN12dmGameSystem16AcquireResourcesEPN10dmGraphics7ContextEPN10dmResource16SResourceFactoryEPNS_13ModelResourceEPKc
Ch:_glGenTextures
Uj:FUNCTION_TABLE_iiiiii
Sr:__ZN10dmResource16GetCanonicalPathEPKcPc
oL:__ZN12btAxisSweep3D0Ev
EU:__ZN15btGjkEpaSolver28DistanceEPK13btConvexShapeRK11btTransformS2_S5_RK9btVector3RNS_8sResultsE
Vaa:_inet_tryconnect
RS:__ZNK15btTriangleShape7getEdgeEiR9btVector3S1_
qY:__ZN13b2DynamicTree10InsertLeafEi
xCa:__ZN5dmGuiL13LuaSetEnabledEP9lua_State
vi:_glfwInitJS
DJ:___clang_call_terminate
QQ:__ZN15btCompoundShapeD0Ev
MBa:__ZN5dmGuiL10LuaGetTextEP9lua_State
LW:__ZN15b2RevoluteJointC2EPK18b2RevoluteJointDef
DUa:_mbedtls_asn1_write_len
Fsa:_inflate
V3a:_emscripten_glGetIntegeri_v__wrapper
O3:__ZN8dmScript13RefInInstanceEP9lua_State
Hua:_SimpleVFilter16
Sma:__ZN8dmBuffer10NewContextEv
gZa:___munmap
aOa:_mbedtls_mpi_exp_mod
JU:__ZNK12gjkepa2_impl13MinkowskiDiff8Support1ERK9btVector3
Xi:_localtime_r
eQa:_ecdh_free_internal
bwa:_WebPYuv444ToRgbaC
DP:__ZN34btSphereTriangleCollisionAlgorithmD2Ev
qj:_strftime
X4a:_emscripten_glTexStorage2D__wrapper
Bs:__ZN10dmResource11SetResourceEPNS_16SResourceFactoryEyPvj
U_:__ZNK15b2FrictionJoint10GetAnchorBEv
xJ:__ZN35btSequentialImpulseConstraintSolver5resetEv
Rza:__ZN5dmGui14GetNodeLayerIdEPNS_5SceneEj
r_:__ZN23b2ChainAndCircleContact7DestroyEP9b2ContactP16b2BlockAllocator
Lva:_MapAlpha
U3:__ZN8dmScript14GetLuaRefCountEv
rG:__ZN10dmGraphics23GetOriginalTextureWidthEPNS_7TextureE
c3:__ZN11dmHashTableImbE5EraseEm
EE:__GLOBAL__sub_I_texture_set_ddf_cpp
Zia:_os_date
toa:__ZN11dmHttpCache5FlushEPNS_5CacheE
Lca:_lua_next
uPa:_aes_setkey_enc_wrap
HQa:_mbedtls_ecp_point_free
iv:__ZN12dmGameSystem22GetJointReactionTorqueEPvS0_yRf
KVa:___errno_location
HF:__ZN10dmGraphics12DrawElementsEPNS_7ContextEjjjjm
ZVa:_strcmp
Ke:_emscripten_glIsShader
ox:__ZN12dmGameSystem25CompModelGetModelResourceEPNS_14ModelComponentE
Sm:__ZN11dmTransform11MulNoScaleZERKN10Vectormath3Aos7Matrix4ES4_
N6:__ZN8dmScriptL22LuaTimerCallbackArgsCBEP9lua_StatePv
bIa:_pk_get_ecpubkey
bWa:_strlen
ci:_glViewport
y3a:_emscripten_glGetUniformiv__wrapper
dsa:__ZN6dmWebP9DecodeRGBEPKvmPvmm
Kha:_db_getmetatable
AU:__ZN31btConvexPlaneCollisionAlgorithmC2EP20btPersistentManifoldRK36btCollisionAlgorithmConstructionInfoP17btCollisionObjectS6_bii
kZ:__ZN7b2JointC2EPK10b2JointDef
Vf:_emscripten_glUseProgram
WXa:_uname
yo:__ZN12dmGameObject19GetComponentFromURLERKN9dmMessage3URLE
n9:_meth_shutdown
jYa:_ferror
h4a:_emscripten_glClearBufferuiv__wrapper
sY:__ZN13b2DynamicTree12DestroyProxyEi
NR:__ZNK34btPolyhedralConvexAabbCachingShape7getAabbERK11btTransformR9btVector3S4_
gM:__ZN16btDbvtBroadphase7rayTestERK9btVector3S2_R23btBroadphaseRayCallbackS2_S2_
xxa:__ZN5dmGui7ContextD2Ev
ZV:__ZN6b2Draw8SetFlagsEj
NCa:__ZN5dmGuiL18LuaGetPieFillAngleEP9lua_State
jga:_addk
g0:__ZN8dmRender26SetMaterialProgramConstantEPNS_8MaterialEyN10Vectormath3Aos7Vector4E
Nu:__ZN12dmGameSystemL9BroadCastIN12dmPhysicsDDF17CollisionResponseEEEvPT_PN12dmGameObject8InstanceEyt
kUa:_ssl_write_session_ticket_ext
$Ia:_mbedtls_sha1_ret
_Na:_mbedtls_mpi_write_binary
Npa:__ZN6dmJsonL10CopyObjectEPK9jsmntok_tPNS_4NodeEi
zoa:__ZN11dmHttpCache3AddEPNS_5CacheEPNS_12CacheCreatorEPKvj
aW:__ZNK7b2Mat337Solve22ERK6b2Vec2
rHa:_mbedtls_pk_verify
XG:__ZN9dmPhysics15DeleteContext2DEPNS_9Context2DE
Upa:__ZL13dmLogDispatchPN9dmMessage7MessageEPv
bRa:_ecp_safe_invert_jac
tja:_luaopen_string
Dwa:_VP8LReadBits
HBa:__ZN5dmGui16InitializeScriptEPN8dmScript7ContextE
Tg:_glBindRenderbuffer
fQa:_mbedtls_ecdh_read_params
Er:__ZN5dmDDF11LoadContext18IncreaseArrayCountEjj
gxa:_HorizontalFilter
Dsa:_inflateReset2
Nk:getTempRet0
iXa:_fourbyte_strstr
zC:__ZN12dmGameSystem18FactoryComp_CreateEP9lua_State
hIa:_mbedtls_platform_gmtime_r
uq:__ZN12dmGameObject21CompScriptGetPropertyERKNS_26ComponentGetPropertyParamsERNS_12PropertyDescE
zsa:_deflate_slow
h1:__ZN8dmRender11DrawDebug2dEPNS_13RenderContextE
Mwa:_Reset
EB:__ZN12dmGameSystem21ResSpineModelRecreateERKN10dmResource22ResourceRecreateParamsE
XP:__ZNK10btBoxShape21calculateLocalInertiaEfR9btVector3
rN:__ZN23btCollisionPairCallbackD0Ev
BF:__ZN10dmGraphics28IsIndexBufferFormatSupportedEPNS_7ContextENS_17IndexBufferFormatE
yi:_glfwPollEvents
to:__ZN12dmGameObjectL15GetPropertyTypeEP9lua_StateiPPv
It:__GLOBAL__sub_I_gamesys_cpp
EPa:_mbedtls_des_setkey_dec
x1a:_emscripten_glDeleteShader__wrapper
xEa:__ZN12dmLiveUpdate27NewArchiveIndexWithResourceEPN10dmResource8ManifestEPKcjPKN17dmResourceArchive18LiveUpdateResourceERPNS5_12ArchiveIndexE
$k:__ZN8dmEngine6LaunchEiPPcPFvPNS_6EngineEPvES6_S4_
U6:__ZN8dmScript15InitializeVmathEP9lua_State
Xpa:__ZN5dmLZ420DecompressBufferFastEPKvjPvj
_Da:__ZN7dmCrashL18Crash_LoadPreviousEP9lua_State
sKa:_mbedtls_ssl_prepare_handshake_record
ld:_emscripten_glDisable
Rsa:_zcalloc
sd:_emscripten_glDrawElementsInstanced
Rv:__ZN12dmGameSystem20RigEventDataCallbackEPN5dmGui5SceneEPvS3_
sL:__ZNK20btAxisSweep3InternalItE7getAabbEP17btBroadphaseProxyR9btVector3S4_
YWa:___DOUBLE_BITS_405
$Oa:_des_setkey_dec_wrap
z0a:_emscripten_glCreateShader__wrapper
w$:__ZN8dmRender18SetDisplayProfilesEPNS_15DisplayProfilesERNS_21DisplayProfilesParamsE
CT:__ZN30btActivatingCollisionAlgorithmD0Ev
a0:__ZN8dmRender24GetMaterialVertexProgramEPNS_8MaterialE
s3a:_emscripten_glTexParameteri__wrapper
YLa:_mbedtls_ssl_free
cta:__ZN16dmConnectionPool9GetSocketEPNS_14ConnectionPoolEj
ke:_emscripten_glGetShaderiv
EX:__ZNSt3__227__insertion_sort_incompleteIRPFbRK6b2PairS3_EPS1_EEbT0_S8_T_
tWa:_close
Isa:__tr_init
$l:__ZN12dmGameObjectL15FinalCollectionEPNS_10CollectionE
bV:__ZNK13b2CircleShape9TestPointERK11b2TransformRK6b2Vec2
ku:__ZN12dmGameSystem30CompCollectionFactoryGetStatusEPNS_26CollectionFactoryComponentE
Gia:_math_fmod
oQ:__ZN21btNodeOverlapCallbackD2Ev
s3:__ZN8dmScript11SetUserTypeEP9lua_StateiPKc
Mna:__Z9dmStrlCpyPcPKcm
Vj:FUNCTION_TABLE_iiiiiii
iOa:_mpi_check_small_factors
Uja:_loader_C
SD:__ZN12dmGameSystem21SpineComp_SetIKTargetEP9lua_State
pGa:__ZN12dmSoundCodec15WavSkipInStreamEPvjPj
Tv:__ZN12dmGameSystem11CompGuiInitERKN12dmGameObject19ComponentInitParamsE
mP:__ZN16btManifoldResult15addContactPointERK9btVector3S2_f
Tta:_GetCoeffs
jCa:__ZN5dmGuiL17LuaGetTextMetricsEP9lua_State
_3:__ZN8dmScript15IsCallbackValidEPNS_15LuaCallbackInfoE
FJ:__ZN35btSequentialImpulseConstraintSolver36resolveSingleConstraintRowLowerLimitER11btRigidBodyS1_RK18btSolverConstraint
yUa:_mbedtls_x509_get_ext
mo:__ZN12dmGameObject23CreatePropertyContainerEPNS_24PropertyContainerBuilderE
V5:__ZN8dmScriptL10URL_concatEP9lua_State
lOa:_mbedtls_cipher_info_from_values
yLa:_mbedtls_ssl_setup
ZS:__ZN22btSubsimplexConvexCastD0Ev
h6:__ZN8dmScript22Sys_GetApplicationInfoEP9lua_State
lfa:_luaZ_read
yT:__ZNK14btQuantizedBvh36walkStacklessQuantizedTreeAgainstRayEP21btNodeOverlapCallbackRK9btVector3S4_S4_S4_ii
D$a:dynCall_vdddddd
QG:__ZN9dmPhysics15ContactListenerD0Ev
ho:__ZN12dmGameObject13PushFloatTypeEPNS_24PropertyContainerBuilderEyNS_12PropertyTypeEPKf
dT:__ZN22btVoronoiSimplexSolver22closestPtPointTriangleERK9btVector3S2_S2_S2_R25btSubSimplexClosestResult
hga:_luaK_reserveregs
Wla:__ZN10dmParticle15GetMaterialPathEPNS_9PrototypeEj
A2:__ZN8dmRender16DispatchCallbackEPN9dmMessage7MessageEPv
Fpa:__ZL19stbi__build_huffmanP13stbi__huffmanPi
cR:__ZN15btCompoundShape13addChildShapeERK11btTransformP16btCollisionShape
Pz:__ZN12dmGameSystem23CollisionObjectResourceaSERKS0_
IXa:___pthread_self_372
SO:__ZN16btEmptyAlgorithm10CreateFuncD0Ev
jna:__ZN12dmConfigFile11HttpContentEPN12dmHttpClient8ResponseEPviPKvj
MK:__ZN23btDiscreteDynamicsWorld19debugDrawConstraintEP17btTypedConstraint
MI:__ZN9dmPhysics11DebugDraw2D10DrawCircleERK6b2Vec2fRK7b2Color
vOa:_get_zeros_and_len_padding
G5:__ZN8dmScriptL13LuaLoadModuleEP9lua_StatePKcjS3_
cja:_os_remove
P1:__ZN8dmRender25RenderScript_SetStencilOpEP9lua_State
dya:__ZN5dmGui13AddSpineSceneEPNS_5SceneEPKcPv
Lj:FUNCTION_TABLE_fiiiiiiiiii
jBa:__ZN5dmGui11LuaSetColorEP9lua_State
IQa:_mbedtls_ecp_group_free
Hl:__ZN8dmRecord9NewParamsC2Ev
_Z:__ZN12b2WheelJoint24SolveVelocityConstraintsERK12b2SolverData
m9:_meth_settimeout
L1:__ZN8dmRender25RenderScript_SetDepthMaskEP9lua_State
RGa:_block_cipher_df
PBa:__ZN5dmGuiL15LuaGetLineBreakEP9lua_State
mNa:_mbedtls_mpi_init
qC:__GLOBAL__sub_I_script_collectionproxy_cpp
QSa:_sha384_ctx_alloc
R6:__ZN8dmScript9ToVector4EP9lua_Statei
bs:__ZN10dmResource18VerifyManifestHashEPNS_16SResourceFactoryEPNS_8ManifestEPKhj
eZ:__ZN16b2PolygonContact8EvaluateEP10b2ManifoldRK11b2TransformS4_
tNa:_mbedtls_mpi_safe_cond_swap
Xra:__ZN8dmThread16GetCurrentThreadEv
gJa:_mbedtls_sha256_finish_ret
Kx:__ZN12dmGameSystem19SetResourcePropertyEPN10dmResource16SResourceFactoryERKN12dmGameObject11PropertyVarEyPPv
Soa:__ZN12dmHttpClientL22DefaultHttpContentDataEPNS_8ResponseEPviPKvj
PG:__ZN17b2ContactListenerD2Ev
gDa:__ZN5dmGuiL18LuaSetInheritAlphaEP9lua_State
SV:__ZNK9b2Simplex16GetWitnessPointsEP6b2Vec2S1_
n7:__ZN8dmScriptL19Matrix4_TranslationEP9lua_State
Gf:_emscripten_glUniform2ui
sU:__ZN24btPerturbedContactResult15addContactPointERK9btVector3S2_f
eJ:__ZN12btIDebugDraw7drawArcERK9btVector3S2_S2_ffffS2_bf
Q7:__ZN8dmScriptL11Vector4_addEP9lua_State
GX:__ZN9b2Fixture6CreateEP16b2BlockAllocatorP6b2BodyPK12b2FixtureDef
jY:__ZN12b2BroadPhase9MoveProxyEiRK6b2AABBRK6b2Vec2
db:___clock_gettime
mp:__ZN12dmGameObject9NewScriptEP9lua_StatePN8dmLuaDDF9LuaModuleE
aha:_luaB_cowrap
TF:__ZN10dmGraphics24GetShaderProgramLanguageEPNS_7ContextE
hWa:_strcpy
_3a:_emscripten_glVertexAttribI2ui__wrapper
GOa:_mbedtls_cipher_crypt
SNa:_mbedtls_mpi_shift_l
iHa:_mbedtls_md5_finish_ret
QJa:_mbedtls_ssl_fetch_input
T9:_socket_select
vua:_TransformUV
_P:__ZNK21btConvexInternalShape9getMarginEv
TNa:_mbedtls_mpi_shift_r
Nca:_lua_newuserdata
z7:__ZN8dmScriptL12OrthoInverseEP9lua_State
wOa:_add_zeros_padding
eK:__ZN23btDiscreteDynamicsWorld15removeRigidBodyEP11btRigidBody
nq:__ZN12dmGameObject15CompScriptFinalERKNS_20ComponentFinalParamsE
Pta:_VP8SetError
Q4:__ZN8dmScript13DDFToLuaValueEP9lua_StatePKN5dmDDF15FieldDescriptorEPKcm
b0a:dynCall_viiiiiii
hw:__ZN12dmGameSystem14CompGuiOnInputERKN12dmGameObject22ComponentOnInputParamsE
Oba:_lua_pushvalue
rF:__ZN10dmGraphics4FlipEPNS_7ContextE
l_:__Z17b2CollidePolygonsP10b2ManifoldPK14b2PolygonShapeRK11b2TransformS3_S6_
I2a:_emscripten_glGetPointerv__wrapper
ZHa:_mbedtls_pk_rsa_11821
EI:__ZN9dmPhysics14DebugCallbacksC2Ev
Aqa:__ZN15dmPoolAllocator9DuplicateEPNS_4PoolEPKc
N9:_meth_setpeername
Opa:__ZN6dmJson5ParseEPKcPNS_8DocumentE
dEa:__ZN7dmCrashL18Crash_GetExtraDataEP9lua_State
wFa:__ZN7dmSound12GetGroupPeakEyfPfS0_
tv:__ZN12dmGameSystem20CompEmitterOnMessageERKN12dmGameObject24ComponentOnMessageParamsE
EXa:_strspn
Kr:__ZN5dmDDF12OutputStream25WriteVarInt32SignExtendedEi
F1:__ZN8dmRender24RenderScript_DrawDebug3dEP9lua_State
mh:_glDeleteShader
Loa:__ZN17dmHttpCacheVerifyL21HttpSendContentLengthEPN12dmHttpClient8ResponseEPv
A_a:__ZNK10__cxxabiv122__base_class_type_info16search_above_dstEPNS_19__dynamic_cast_infoEPKvS4_ib
Eha:_db_debug
C8:_bit_bxor
vj:_usleep
CTa:_mbedtls_ssl_hs_hdr_len_12813
RQ:__ZNK15btCompoundShape7getAabbERK11btTransformR9btVector3S4_
Fd:_emscripten_glFrustum
JC:__ZN12dmGameSystem21LuaModelComp_PlayAnimEP9lua_State
Hs:__ZN10dmResource6IncRefEPNS_16SResourceFactoryEPv
QXa:_shl
OXa:_shr
yG:__ZN10dmGraphics12SetBlendFuncEPNS_7ContextEjj
dL:__ZN11btRigidBody18proceedToTransformERK11btTransform
vCa:__ZN5dmGuiL11LuaPickNodeEP9lua_State
gr:__ZN5dmDDF14ScalarTypeSizeEj
CE:__GLOBAL__sub_I_spine_ddf_cpp
so:__ZN12dmGameObject8LuaToVarEP9lua_StateiRNS_11PropertyVarE
Gs:__ZN10dmResource20GetDescriptorWithExtEPNS_16SResourceFactoryEyPKyjPNS_19SResourceDescriptorE
Gra:__ZN5dmSys18GetApplicationPathEPcj
Taa:_inet_trycreate
g6:__ZN8dmScript17Sys_GetEngineInfoEP9lua_State
XL:__ZN15btNullPairCache26processAllOverlappingPairsEP17btOverlapCallbackP12btDispatcher
Gu:__ZN12dmGameSystemL21CreateCollisionObjectEPNS_14PhysicsContextEPNS_14CollisionWorldEPN12dmGameObject8InstanceEPNS_18CollisionComponentEb
UXa:_isalnum
Pwa:_Execute
dJa:_mbedtls_sha256_starts_ret
YO:__ZN33btConvexConcaveCollisionAlgorithm17SwappedCreateFuncD0Ev
$Qa:_ecp_comb_recode_scalar
Qp:__ZN12dmGameObject17ResScriptRecreateERKN10dmResource22ResourceRecreateParamsE
eA:__ZN12dmGameSystem16ResFontMapCreateERKN10dmResource20ResourceCreateParamsE
NGa:__ZN12dmSoundCodec15FindBestDecoderENS_6FormatE
GC:__ZN12dmGameSystem19ScriptLabelFinalizeERKNS_16ScriptLibContextE
vM:__ZN6btDbvt8ICollide7ProcessEPK10btDbvtNodef
POa:_chacha20_ctx_free
kO:__ZThn4_N17DebugDrawcallback28internalProcessTriangleIndexEP9btVector3ii
PH:__ZN9dmPhysics12NewContext3DERKNS_16NewContextParamsE
x9:_global_create_7467
nNa:_mbedtls_mpi_free
Vm:__ZN12dmGameObject23IsCollectionInitializedEPNS_10CollectionE
lI:__ZN9dmPhysics19GetLinearVelocity3DEPNS_9Context3DEPv
_ya:__ZN5dmGui11GetNodeSizeEPNS_5SceneEj
AWa:_strtox_220
Cpa:__ZL22stbi__resample_row_v_2PhS_S_ii
Rka:__ZN7dmInput13DeleteContextEPNS_7ContextE
M4a:_emscripten_glStencilFuncSeparate__wrapper
HU:__ZN12gjkepa2_impl3GJK13projectoriginERK9btVector3S3_S3_PfRj
OH:__ZN9dmPhysics7World3DD2Ev
Zwa:_VP8DecompressAlphaRows
Z8:_meth_bind
mka:__ZN5dmHID13DeleteContextEPNS_7ContextE
Aq:__ZN5dmDDF26InternalRegisterDescriptorC2EPNS_10DescriptorE
cza:__ZN5dmGuiL15GetPropertyDescEy
Ey:__ZN12dmGameSystem18CompSpriteNewWorldERKN12dmGameObject23ComponentNewWorldParamsE
Zt:__ZN12dmGameSystem16CompCameraUpdateERKN12dmGameObject22ComponentsUpdateParamsERNS0_22ComponentsUpdateResultE
sQ:__ZN22btBvhTriangleMeshShape17performConvexcastEP18btTriangleCallbackRK9btVector3S4_S4_S4_
uG:__ZN10dmGraphics14DisableTextureEPNS_7ContextEjPNS_7TextureE
YAa:__ZN5dmGui11LuaGetIndexEP9lua_State
eTa:_mbedtls_oid_get_oid_by_md
Aja:_gmatch
fa:invoke_ii
$B:__ZN12dmGameSystem18ResTileGridPreloadERKN10dmResource21ResourcePreloadParamsE
nla:__ZN10dmParticle15DestroyInstanceEPNS_7ContextEj
Rs:__ZN17dmResourceArchive20CmpArchiveIdentifierEPNS_21ArchiveIndexContainerEPhj
DZ:__ZN13b2PulleyJoint23InitVelocityConstraintsERK12b2SolverData
Wi:_localtime
PM:__ZNK28btHashedOverlappingPairCache22getNumOverlappingPairsEv
UD:__ZN12dmGameSystem21SpineComp_SetConstantEP9lua_State
tQ:__ZZN22btBvhTriangleMeshShape17performConvexcastEP18btTriangleCallbackRK9btVector3S4_S4_S4_EN21MyNodeOverlapCallbackD0Ev
qoa:__ZN11dmHashTableIyN11dmHttpCache5EntryEE11SetCapacityEjj
tS:__ZZN33btMinkowskiPenetrationDepthSolver12calcPenDepthER22btVoronoiSimplexSolverPK13btConvexShapeS4_RK11btTransformS7_R9btVector3S9_S9_P12btIDebugDrawP12btStackAllocEN20btIntermediateResultD0Ev
FE:__GLOBAL__sub_I_tile_ddf_cpp
KRa:_mbedtls_gcm_init
qwa:_YuvToRgb565Row
lea:_subexpr
R_a:_bitshift64Ashr
EBa:__ZN5dmGui17LuaGetSpineCursorEP9lua_State
hh:_glCullFace
vV:__ZNK11b2GridShape15GetCellVerticesEjP6b2Vec2
JAa:__ZN5dmGui13IsNodeEnabledEPNS_5SceneEj
i_a:__ZNK10__cxxabiv117__class_type_info29process_static_type_below_dstEPNS_19__dynamic_cast_infoEPKvi
dE:__GLOBAL__sub_I_script_tilemap_cpp
yCa:__ZN5dmGuiL16LuaGetAdjustModeEP9lua_State
im:__ZN12dmGameObjectL13DoAddToUpdateEPNS_10CollectionEPNS_8InstanceE
dz:__ZN12dmGameSystem12GetTileCountEPKNS_17TileGridComponentE
ZR:__ZNK13btSphereShape37localGetSupportingVertexWithoutMarginERK9btVector3
q1:__ZN8dmRender24RenderScript_EnableStateEP9lua_State
EVa:_internal_memalign
r1a:_emscripten_glRotatef__wrapper
Jqa:__ZN9dmProfile5BeginEv
uja:_str_byte
M8:_global_unload
ONa:_mbedtls_mpi_mod_int
kP:__ZN13btGhostObjectC2Ev
cu:__ZN12dmGameSystem32CompCollectionFactoryDeleteWorldERKN12dmGameObject26ComponentDeleteWorldParamsE
ZC:__ZN12dmGameSystem15Physics_RayCastEP9lua_State
$ga:_luaB_costatus
Tw:__ZN12dmGameSystem17CompModelNewWorldERKN12dmGameObject23ComponentNewWorldParamsE
f$a:dynCall_fif
v5a:_emscripten_glCompressedTexImage2D__wrapper
ZO:__ZN33btConvexConcaveCollisionAlgorithm17SwappedCreateFunc24CreateCollisionAlgorithmER36btCollisionAlgorithmConstructionInfoP17btCollisionObjectS4_
vta:_VP8InitFrame
R:abort
jDa:__ZN5dmGuiL14HashTableIndexEP9lua_State
m6:__ZN8dmScriptL19Sys_GetConnectivityEP9lua_State
re:_emscripten_glGetTransformFeedbackVarying
HYa:___fseeko_unlocked
bHa:_mbedtls_platform_entropy_poll
y2:__ZN8dmRender9RunScriptEPNS_20RenderScriptInstanceENS_20RenderScriptFunctionEPv
c8:__ZN8dmScriptL11Vector3_unmEP9lua_State
sXa:___bswap_32_62
SH:__ZN9dmPhysics10NewWorld3DEPNS_9Context3DERKNS_14NewWorldParamsE
aWa:_pthread_self
eMa:_mbedtls_ssl_get_key_exchange_md_ssl_tls
Jk:stackRestore
NC:__ZN12dmGameSystem26LuaModelComp_ResetConstantEP9lua_State
GF:__ZN10dmGraphics24DisableVertexDeclarationEPNS_7ContextEPNS_17VertexDeclarationE
sH:__ZN9dmPhysics23DeleteCollisionObject2DEPNS_7World2DEPv
W_a:_saveSetjmp
Dp:__ZN12dmGameObject20ResCollectionDestroyERKN10dmResource21ResourceDestroyParamsE
Q8:_getfd
JOa:_chachapoly_setkey_wrap
Saa:_inet_meth_getsockname
Uwa:_WebPSafeFree
ypa:__ZL31stbi__jpeg_decode_block_prog_dcP10stbi__jpegPsP13stbi__huffmani
tl:__ZL25JsToDef_SendObjectMessagePKcS0_
tr:__ZN5dmDDF11LoadContextC2EPcibj
Z2a:_emscripten_glVertexAttribI3iv__wrapper
Ht:__ZN16dmBlockAllocator13DeleteContextEPNS_7ContextE
Oe:_emscripten_glLinkProgram
Rl:__ZN11dmHashTableIyPN12dmGameObject10CollectionEE3PutEyRKS2_
nN:__ZN21btCollisionDispatcher26getManifoldByIndexInternalEi
I$:__ZN8dmRender18GetFontMapMaterialEPNS_7FontMapE
r3:__ZN8dmScript13GetMainThreadEP9lua_State
qca:_lua_gettable
JG:__ZN10dmGraphics16JobQueueFinalizeEv
i2a:b36
mha:_luaB_load
C1:__ZN8dmRender34RenderScript_GetRenderTargetHeightEP9lua_State
Dk:FUNCTION_TABLE_viiiiiiiif
ie:_emscripten_glGetShaderPrecisionFormat
gka:__ZN11dmExtension10PostRenderEPNS_6ParamsE
Ek:FUNCTION_TABLE_viiiiiiiii
JZa:_rand
z4a:_emscripten_glFramebufferRenderbuffer__wrapper
r$:__ZN8dmRender10FlushDebugEPNS_13RenderContextEj
U5:__ZN8dmScriptL12URL_tostringEP9lua_State
u0:__ZNSt3__218__insertion_sort_3IRPFbRKN8dmRender3TagES4_EPS2_EEvT0_S9_T_
Nn:__ZN12dmGameObject11SetPositionEPNS_8InstanceEN10Vectormath3Aos6Point3E
vf:_emscripten_glTexSubImage3D
wxa:__ZN5dmGui13DeleteContextEPNS_7ContextEPN8dmScript7ContextE
DO:__ZN31btDefaultCollisionConfiguration25getPersistentManifoldPoolEv
KJa:_mbedtls_ssl_encrypt_buf
QLa:_mbedtls_ssl_renegotiate
b0:__ZN8dmRender26GetMaterialFragmentProgramEPNS_8MaterialE
OEa:__ZN12dmDeviceNull25DeviceNullFreeBufferSlotsEPv
QR:__ZN23btPolyhedralConvexShapeC2Ev
ma:invoke_iiiiiii
Ro:__ZN12dmGameObject12Script_GetIdEP9lua_State
kb:___resumeException
NT:__Z11cullPoints2iPfiiPi
qZ:__ZNK12b2MouseJoint17GetReactionTorqueEf
e8:__ZN8dmScriptL10Vector3_eqEP9lua_State
Mda:_singlestep
qza:__ZN5dmGui16GetNodeTextureIdEPNS_5SceneEj
pta:_ReconstructRow
$2:__ZN8dmScriptL16DoLuaPPrintTableEP9lua_StateiPN8dmPPrint7PrinterER11dmHashTableImbE
R1a:_emscripten_glClearStencil__wrapper
v0:__ZNSt3__227__insertion_sort_incompleteIRPFbRKN8dmRender3TagES4_EPS2_EEbT0_S9_T_
RLa:_ssl_start_renegotiation
XJa:_ssl_get_remaining_payload_in_datagram
Ah:_glGenFramebuffers
lPa:_camellia_setkey_enc_wrap
o_a:__ZNK10__cxxabiv120__si_class_type_info27has_unambiguous_public_baseEPNS_19__dynamic_cast_infoEPvi
Hy:__ZN12dmGameSystem16CompSpriteCreateERKN12dmGameObject21ComponentCreateParamsE
Mm:__ZN11dmHashTableIyyE11SetCapacityEjj
pZ:__ZNK12b2MouseJoint16GetReactionForceEf
jea:_block
YQa:_ecp_pick_window_size
_y:__ZN12dmGameSystem17GetTileGridBoundsEPKNS_17TileGridComponentEPiS3_S3_S3_
dQa:_mbedtls_ecdh_free
wda:_luaF_newCclosure
FRa:_ecp_mod_p448
fY:__ZN12b2BroadPhaseC2Ev
kva:_VP8InitClipTables
s9:_timeout_open
ME:__ZN10dmGraphics18TextureFormatToBPPC2Ev
QY:__ZN23b2EdgeAndPolygonContact8EvaluateEP10b2ManifoldRK11b2TransformS4_
c5a:_emscripten_glGetActiveUniformName__wrapper
xDa:__ZN5dmGuiL28GuiScriptInstanceResolvePathEP9lua_State
Afa:_luaL_optnumber
uWa:___bswap_32
zt:__ZN10dmResource9UnmapFileERPvj
fT:__ZN22btVoronoiSimplexSolver7closestER9btVector3
NA:__ZN12dmGameSystem18ResMaterialPreloadERKN10dmResource21ResourcePreloadParamsE
fSa:_mbedtls_md_finish
y3:__ZN8dmScript6GetURLEP9lua_StateRN9dmMessage3URLE
vU:__ZN31btConvexPlaneCollisionAlgorithmD0Ev
D1:__ZN8dmRender18RenderScript_ClearEP9lua_State
hW:__ZNK16b2PrismaticJoint10GetAnchorBEv
EYa:___string_read
JZ:__ZNK11b2WeldJoint10GetAnchorAEv
p4:__ZN8dmScript14SetStreamValueIfEEvPvid
PHa:_eckey_free_wrap
bt:__ZN17dmResourceArchive18SetNewArchiveIndexEPNS_21ArchiveIndexContainerEPNS_12ArchiveIndexEb
Sea:_luaH_set
$Z:__ZN12b2WheelJoint24SolvePositionConstraintsERK12b2SolverData
tm:__ZN12dmGameObject21RegisterComponentTypeEPNS_8RegisterERKNS_13ComponentTypeE
Kh:_glGetShaderiv
zCa:__ZN5dmGuiL16LuaSetAdjustModeEP9lua_State
oJa:_mbedtls_sha512_finish_ret
_t:__ZN12dmGameSystem19CompCameraOnMessageERKN12dmGameObject24ComponentOnMessageParamsE
UFa:_start_page_no_capturepattern
b6:__ZN8dmScript22Sys_GetApplicationPathEP9lua_State
Z4:__ZN8dmScript6IsHashEP9lua_Statei
UE:__ZN10dmGraphics13OnWindowCloseEv
FWa:___toread
yZa:_fputc
OFa:_vorbis_deinit
LIa:_mbedtls_rsa_rsassa_pss_verify_ext
rB:__ZN12dmGameSystem18ResSkeletonDestroyERKN10dmResource21ResourceDestroyParamsE
GK:__ZN16btCollisionWorld20ConvexResultCallbackD2Ev
ofa:_luaL_error
ZD:__ZN12dmGameSystem19SpriteComp_SetVFlipEP9lua_State
vp:__ZN12dmGameObject20PropertiesToLuaTableEPNS_8InstanceEPNS_6ScriptEPNS_10PropertiesEP9lua_Statei
Dz:__ZN12dmGameSystemL21AcquireCollectionDescEPN10dmResource16SResourceFactoryEPN15dmGameSystemDDF21CollectionFactoryDescEPNS_25CollectionFactoryResourceE
NY:__ZN22b2EdgeAndCircleContactD0Ev
Qg:_glAttachShader
yoa:__ZN11dmHttpCache5BeginEPNS_5CacheEPKcjPPNS_12CacheCreatorE
OAa:__ZN5dmGui4NodeaSERKS0_
yx:__ZN12dmGameSystem22FetchAnimationCallbackEPvyPN10dmParticle13AnimationDataE
Yka:__ZN7dmInput13DeleteBindingEPNS_7BindingE
Qla:__ZN10dmParticle19NewPrototypeFromDDFEPN13dmParticleDDF10ParticleFXE
Tra:__ZN8dmThread4JoinEm
I8:_bit_bswap
IDa:__ZN7dmCrash12SetUserFieldEjPKc
cVa:_chacha20_quarter_round
c0a:dynCall_viiiiiiii
Ne:_emscripten_glLineWidth
UR:__ZNK13btSphereShape21calculateLocalInertiaEfR9btVector3
e9:_meth_getsockname
aY:__ZN7b2World9DrawJointEP7b2Joint
wG:__ZN10dmGraphics11EnableStateEPNS_7ContextEj
dA:__ZN12dmGameSystem17ResFontMapPreloadERKN10dmResource21ResourcePreloadParamsE
nva:_VP8LColorIndexInverseTransformAlpha
c$:__ZNK11b2GearJoint10GetAnchorBEv
s5a:_emscripten_glGetActiveAttrib__wrapper
cYa:___ofl_unlock
OY:__ZN22b2EdgeAndCircleContact6CreateEP9b2FixtureiS1_iP16b2BlockAllocator
T2a:_emscripten_glClampColor__wrapper
ZE:__ZN10dmGraphics15SetTextureAsyncEPNS_7TextureERKNS_13TextureParamsE
hC:__GLOBAL__sub_I_script_collection_factory_cpp
Fw:__ZN12dmGameSystem23CompLabelGetTextMetricsEPKNS_14LabelComponentERN8dmRender11TextMetricsE
Uka:__ZN11dmHashTableIyN7dmInput6ActionEE3PutEyRKS1_
LD:__GLOBAL__sub_I_script_spine_model_cpp
_:invoke_fiii
U4:__ZN11dmHashTableImPFN8dmScript6ResultEP9lua_StatePKN5dmDDF10DescriptorEPKcEE3PutEmRKSB_
CQ:__ZNK14btCapsuleShape9serializeEPvP12btSerializer
fma:__GLOBAL__sub_I_rig_cpp
Xw:__ZN12dmGameSystemL13CreateGOBonesEPNS_10ModelWorldEPNS_14ModelComponentE
cz:__ZN12dmGameSystem15SetTileGridTileEPNS_17TileGridComponentEjiijbb
KZa:_modf
Hw:__ZN12dmGameSystem20CompLabelGetPropertyERKN12dmGameObject26ComponentGetPropertyParamsERNS0_12PropertyDescE
g1:__ZN8dmRender11DrawDebug3dEPNS_13RenderContextE
Dc:_emscripten_glCheckFramebufferStatus
aPa:_des_ctx_alloc
yaa:_buffer_meth_getstats
YQ:__ZNK15btCompoundShape28calculateSerializeBufferSizeEv
ue:_emscripten_glGetUniformLocation
L$:__ZN8dmRender14DrawTextParamsC2Ev
Hya:__ZN5dmGui11UpdateSceneEPNS_5SceneEf
pq:__ZN12dmGameObject16CompScriptUpdateERKNS_22ComponentsUpdateParamsERNS_22ComponentsUpdateResultE
Mba:_lua_insert
TH:__ZN9dmPhysics13DeleteWorld3DEPNS_9Context3DEPNS_7World3DE
_Ca:__ZN5dmGuiL26LuaGetFlipbookPlaybackRateEP9lua_State
dTa:_oid_md_alg_from_asn1
Zla:__ZN10dmParticle13GetTileSourceEPNS_9PrototypeEj
cr:__ZN5dmDDF11InputBuffer9ReadInt64EPx
uK:__ZN23btDiscreteDynamicsWorld28internalSingleStepSimulationEf
N5:__ZN8dmScript7URL_newEP9lua_State
uJ:__ZN18btConstraintSolver12prepareSolveEii
ERa:_ecp_use_curve25519
ja:invoke_iiii
vu:__ZN12dmGameSystem25CompCollectionProxyRenderERKN12dmGameObject22ComponentsRenderParamsE
Aca:_lua_rawseti
Te:_emscripten_glPixelStorei
bca:_lua_tocfunction
ia:invoke_iiif
my:__ZN12dmGameSystem25CompSpineModelAddToUpdateERKN12dmGameObject26ComponentAddToUpdateParamsE
qH:__ZN9dmPhysics20NewCollisionObject2DEPNS_7World2DERKNS_19CollisionObjectDataEPPvPN10Vectormath3Aos7Vector3EPNS8_4QuatEj
Aua:_HFilter16
vAa:__ZN5dmGui24GetNodePerimeterVerticesEPNS_5SceneEj
rka:__ZN5dmHID13GetTextPacketEPNS_7ContextEPNS_10TextPacketE
ao:__ZN12dmGameObject14SetPropertySetEPNS_10PropertiesENS_13PropertyLayerERKNS_11PropertySetE
Bw:__ZN12dmGameSystem15CompLabelRenderERKN12dmGameObject22ComponentsRenderParamsE
TIa:_mbedtls_rsa_deduce_crt
Dt:__GLOBAL__sub_I_resource_ddf_cpp
tBa:__ZN5dmGui20LuaGetScreenPositionEP9lua_State
R4:__ZN8dmScript7PushDDFEP9lua_StatePKN5dmDDF10DescriptorEPKcb
Hja:_str_sub
de:_emscripten_glGetPointerv
O2:__ZN8dmScript10NewContextEPN12dmConfigFile6ConfigEPN10dmResource16SResourceFactoryEb
nXa:___inet_aton
zM:__ZN20BroadphaseAabbTesterD0Ev
BV:__ZN11b2GridShape11SetCellHullEP6b2BodyjjjNS_9CellFlagsE
gl:__ZN15dmEngineService6UpdateEPNS_13EngineServiceEPN9dmProfile7ProfileE
kj:_pthread_mutexattr_destroy
lMa:_x509_get_dates
iza:__ZN5dmGui11SetNodeTextEPNS_5SceneEjPKc
$3a:_emscripten_glGetUniformuiv__wrapper
pO:__ZNK16btCollisionWorld20ConvexResultCallback14needsCollisionEP17btBroadphaseProxy
L_a:_i64Add
EFa:__ZN7dmSound13OnWindowFocusEb
uya:__ZN5dmGui42CalculateParentNodeTransformAndAlphaCachedEPNS_5SceneEPNS_12InternalNodeERN10Vectormath3Aos7Matrix4ERfRNS_19SceneTraversalCacheE
w1:__ZN8dmRender31RenderScript_EnableRenderTargetEP9lua_State
M9:_meth_getoption_7495
Epa:__ZL26stbi__resample_row_genericPhS_S_ii
Jua:_SimpleVFilter16i
Go:__ZN12dmGameObject21Script_GetScaleVectorEP9lua_State
bZ:__ZN25b2PolygonAndCircleContactD0Ev
pIa:_mbedtls_rsa_free
HSa:_sha224_ctx_free
pG:__ZN10dmGraphics15GetTextureWidthEPNS_7TextureE
$Ua:_mbedtls_chacha20_update
Oka:__ZN5dmHID19EnableAccelerometerEv
wM:__ZN6btDbvt8ICollide7DescentEPK10btDbvtNode
GT:__ZN26btBoxBoxCollisionAlgorithm16processCollisionEP17btCollisionObjectS1_RK16btDispatcherInfoP16btManifoldResult
U9:_socket_create
il:__ZN15dmEngineService12InitProfilerEPNS_13EngineServiceEPN10dmResource16SResourceFactoryEPN12dmGameObject8RegisterE
ywa:_VP8LoadFinalBytes
Vn:__ZN12dmGameObject11SetPropertyEPNS_8InstanceEyyRKNS_11PropertyVarE
g5:__ZN8dmScriptL15Script_tostringEP9lua_State
Mma:__ZN5dmRig15InstanceDestroyERKNS_21InstanceDestroyParamsE
Yj:FUNCTION_TABLE_iiiiiiiiii
NRa:_mbedtls_gcm_starts
lJ:__ZN11dmHashTableImN9dmPhysics12OverlapEntryEE11SetCapacityEjj
nZa:_setlocale_one_unlocked
gJ:__ZN12btIDebugDraw7drawBoxERK9btVector3S2_S2_
L3:__ZN8dmScript23SetInstanceContextValueEP9lua_State
OPa:_mbedtls_des3_crypt_cbc
bQ:__ZNK10btBoxShape24localGetSupportingVertexERK9btVector3
ST:__ZN28btCompoundCollisionAlgorithm21calculateTimeOfImpactEP17btCollisionObjectS1_RK16btDispatcherInfoP16btManifoldResult
pU:__ZN23btConvexConvexAlgorithm21calculateTimeOfImpactEP17btCollisionObjectS1_RK16btDispatcherInfoP16btManifoldResult
y0:__ZN8dmRender17StencilTestParamsC2Ev
i5:__ZN8dmScriptL11Script_HashEP9lua_State
Il:__GLOBAL__sub_I_gameobject_cpp
An:__ZN12dmGameObject16GetWorldPositionEPNS_8InstanceE
L4a:_emscripten_glBlendFuncSeparate__wrapper
Sj:FUNCTION_TABLE_iiii
Rj:FUNCTION_TABLE_iiif
De:_emscripten_glHint
iL:__ZN11btRigidBody19removeConstraintRefEP17btTypedConstraint
kaa:__GLOBAL__sub_I_http_ddf_cpp
xb:___syscall3
$1:__ZN8dmRenderL35RenderScriptConstantBuffer_tostringEP9lua_State
Fb:___syscall6
Db:___syscall5
Bb:___syscall4
_M:__ZZN28btHashedOverlappingPairCache37removeOverlappingPairsContainingProxyEP17btBroadphaseProxyP12btDispatcherEN18RemovePairCallbackD0Ev
B2a:_emscripten_glVertexAttrib4fv__wrapper
fs:__ZN10dmResourceL10HttpHeaderEPN12dmHttpClient8ResponseEPviPKcS5_
rFa:__ZN7dmSound12SetGroupGainEyf
$Va:___pthread_self
Ut:__ZN12dmGameSystem18CompCameraNewWorldERKN12dmGameObject23ComponentNewWorldParamsE
uj:_tzset
cV:__ZNK13b2CircleShape7RayCastEP15b2RayCastOutputRK14b2RayCastInputRK11b2Transformi
af:_emscripten_glShaderBinary
Hsa:_inflate_table
ICa:__ZN5dmGuiL15LuaHideKeyboardEP9lua_State
lqa:__ZN9dmMessage4PostEPKNS_3URLES2_ymmPKvjPFvPNS_7MessageEE
kp:__ZN12dmGameObjectL17ScriptResolvePathEP9lua_State
eB:__ZN12dmGameSystem24ResRenderPrototypeCreateERKN10dmResource20ResourceCreateParamsE
l5a:b51
Xza:__ZN5dmGui27GetNodeFlipbookPlaybackRateEPNS_5SceneEj
ksa:_WebPDecodeRGBInto
Do:__ZN12dmGameObjectL15ResolveInstanceEP9lua_Statei
ysa:_deflate_fast
LSa:_sha256_wrap
QH:__ZN9dmPhysics15DeleteContext3DEPNS_9Context3DE
Zz:__ZN12dmGameSystem18ResEmitterRecreateERKN10dmResource22ResourceRecreateParamsE
wJa:_ssl_clear_peer_cert
LF:__ZN10dmGraphics18NewFragmentProgramEPNS_7ContextEPNS_10ShaderDesc6ShaderE
Lja:_push_onecapture
Tb:_abort
_w:__ZN12dmGameSystemL22CompModelEventCallbackEN5dmRig12RigEventTypeEPvS2_S2_
Wh:_glTexImage2D
hS:__ZN12btConvexCastD2Ev
Pba:_lua_type
XS:__ZN25btTriangleRaycastCallbackC2ERK9btVector3S2_j
vr:__ZN11dmHashTableIjjE3PutEjRKj
WMa:_mbedtls_aes_setkey_enc
wSa:_sha1_update_wrap
$da:_luaO_log2
W0:__ZN8dmRender20FindRenderListRangesEPjmmPNS_15RenderListEntryERNS_19FindRangeComparatorEPvPFvS5_jmmE
wwa:_ConvertBGR24ToY
Mpa:__ZN6dmJsonL9CopyTokenEPK9jsmntok_tPNS_4NodeEi
rV:__ZNK11b2GridShape9TestPointERK11b2TransformRK6b2Vec2
jV:__ZNK11b2EdgeShape7RayCastEP15b2RayCastOutputRK14b2RayCastInputRK11b2Transformi
sw:__ZN12dmGameSystem20CompLabelDeleteWorldERKN12dmGameObject26ComponentDeleteWorldParamsE
EEa:__ZN12dmLiveUpdate23AddAsyncResourceRequestERNS_20AsyncResourceRequestE
RXa:_pntz
dza:__ZN5dmGui15GetNodePropertyEPNS_5SceneEjNS_8PropertyE
zn:__ZN12dmGameObject8GetScaleEPNS_8InstanceE
$Ma:_mbedtls_aes_crypt_ecb
Ff:_emscripten_glUniform2iv
Oya:__ZN5dmGui7NewNodeEPNS_5SceneERKN10Vectormath3Aos6Point3ERKNS3_7Vector3ENS_8NodeTypeE
Xqa:__ZN8dmSocket12IsSocketIPv6Ei
kDa:__ZN5dmGuiL16CloneNodeToTableEP9lua_StatePNS_5SceneEPNS_12InternalNodeEPj
pe:_emscripten_glGetTexParameterfv
wb:___syscall221
jZa:_strncasecmp
Xxa:__ZN5dmGui22CancelNodeFlipbookAnimEPNS_5SceneEj
qNa:_mbedtls_mpi_shrink
Oea:_luaH_new
z2:__ZN8dmRender24InitRenderScriptInstanceEPNS_20RenderScriptInstanceE
BJa:_mbedtls_ssl_derive_keys
EZa:_strcat
Jia:_math_log10
ENa:_mbedtls_mpi_add_int
FU:__ZN12gjkepa2_impl3GJK8EvaluateERKNS_13MinkowskiDiffERK9btVector3
Uu:__ZN12dmGameSystem30CompCollisionObjectAddToUpdateERKN12dmGameObject26ComponentAddToUpdateParamsE
ap:__ZN12dmGameObject16InitializeScriptEPNS_8RegisterEPN8dmScript7ContextE
JO:__ZN30btCollisionAlgorithmCreateFuncD2Ev
eDa:__ZN5dmGuiL17LuaParticlefxStopEP9lua_State
Kma:__ZN5dmRig14InstanceCreateERKNS_20InstanceCreateParamsE
Qva:_WebPRescalerImportRow
Vda:_luaC_linkupval
O8:_global_select
jt:__ZN10dmResource15UpdatePreloaderEPNS_17ResourcePreloaderEPFbPKNS_31PreloaderCompleteCallbackParamsEEPS2_j
nZ:__ZNK12b2MouseJoint10GetAnchorAEv
zE:__GLOBAL__sub_I_model_ddf_cpp
BO:__ZN31btDefaultCollisionConfigurationD2Ev
Uda:_luaC_link
aka:__ZN11dmExtension9AppParamsC2Ev
uZa:_ftell
Kla:__ZN10dmParticle18GenerateVertexDataEPNS_7ContextEfjjRKN10Vectormath3Aos7Vector4EPvjPjNS_20ParticleVertexFormatE
T1:__ZN8dmRender22RenderScript_GetHeightEP9lua_State
Oo:__ZN12dmGameObject20Script_GetWorldScaleEP9lua_State
fXa:_strstr
HI:__ZN9dmPhysics21OverlapCachePruneDataC2Ev
waa:_buffer_open
UY:__ZN22b2GridAndCircleContact8EvaluateEP10b2ManifoldRK11b2TransformS4_
dxa:_HorizontalUnfilter
v:tempValue
Nra:__ZN5dmSys18GetApplicationInfoEPKcPNS_15ApplicationInfoE
pL:__ZN20btAxisSweep3InternalItE11createProxyERK9btVector3S3_iPvssP12btDispatcherS4_
Ri:_llvm_floor_f32
VSa:_sha512_wrap
pg:_emscripten_glVertexAttribI3uiv
aea:_luaO_rawequalObj
hD:__ZN12dmGameSystemL16Physics_SetFlipHEP9lua_State
Ez:__ZN12dmGameSystem26ResCollectionFactoryCreateERKN10dmResource20ResourceCreateParamsE
ur:__ZN11dmHashTableIjjE11SetCapacityEjj
$C:__ZN12dmGameSystemL19Physics_CreateJointEP9lua_State
Tn:__ZN12dmGameObject11GetPropertyEPNS_8InstanceEyyRNS_12PropertyDescE
qPa:_gcm_aes_setkey_wrap
kYa:_fscanf
fda:_luaD_throw
jHa:_mbedtls_md5_ret
ka:invoke_iiiii
BAa:__ZN5dmGui15SetNodeSizeModeEPNS_5SceneEjNS_8SizeModeE
aX:__ZN11b2RopeJointD0Ev
AM:__ZN6btDbvt8ICollide7ProcessEPK10btDbvtNodeS3_
La:invoke_viii
P3a:_emscripten_glNormalPointer__wrapper
X3a:_emscripten_glGetVertexAttribIiv__wrapper
Ga:invoke_viid
Ha:invoke_viif
x8:_luaopen_bit
J3:__ZN8dmScript18InitializeInstanceEPNS_11ScriptWorldE
Dra:__ZN5dmSys8MoveFileEPKcS1_
k2:__ZN8dmRenderL23RenderScriptResolvePathEP9lua_State
jAa:__ZN5dmGui14GetTextMetricsEPNS_5SceneEPKcyfbffPNS_11TextMetricsE
Eo:__ZN12dmGameObject18Script_GetRotationEP9lua_State
YW:__ZNK11b2RopeJoint10GetAnchorBEv
E_a:___cxa_guard_abort
Bm:__ZN12dmGameObject21RegisterResourceTypesEPN10dmResource16SResourceFactoryEPNS_8RegisterEPN8dmScript7ContextEPNS_13ModuleContextE
t1a:_emscripten_glBlendColor__wrapper
Kwa:_VP8InitRandom
zj:emscriptenWebGLGetUniform
KP:__ZN11btUnionFindC2Ev
KD:__ZN12dmGameSystem24ScriptSoundOnWindowFocusEb
sLa:_mbedtls_ssl_handshake_wrapup
fIa:_mbedtls_pk_parse_public_key
u4a:_emscripten_glShaderSource__wrapper
X2a:_emscripten_glVertexAttribI1iv__wrapper
K:Math_log
Qaa:_inet_optfamily
r5:__ZN8dmScriptL22MessageDestroyCallbackEPN9dmMessage7MessageE
X_:__ZN15b2FrictionJoint4DumpEv
L5:__ZN8dmScript5IsURLEP9lua_Statei
PY:__ZN22b2EdgeAndCircleContact7DestroyEP9b2ContactP16b2BlockAllocator
kH:__ZN9dmPhysics19ClearGridShapeHullsEPv
twa:_WebPInitConvertARGBToYUV
Od:_emscripten_glGetActiveUniformBlockName
dn:__ZN7dmVMath11EulerToQuatEN10Vectormath3Aos7Vector3E
FTa:_mbedtls_ssl_own_key
xK:__ZN23btDiscreteDynamicsWorld12applyGravityEv
Rxa:__ZN11dmHashTableIyN5dmGui11TextureInfoEE3PutEyRKS1_
BTa:_ssl_parse_new_session_ticket
Cj:f0
KNa:_mpi_sub_hlp
UN:__ZN19btSingleRayCallback7processEPK17btBroadphaseProxy
_a:_JsToDef_RegisterCallbacks
Sz:__ZN12dmGameSystem21ResConvexShapeDestroyERKN10dmResource21ResourceDestroyParamsE
nz:__ZN12dmGameSystemL18RenderListDispatchERKN8dmRender24RenderListDispatchParamsE_2666
Kpa:__ZN8dmSocket14GetIfAddressesEPNS_6IfAddrEjPj
tP:__ZN25btSimulationIslandManagerC2Ev
xua:_TransformDCUV
En:__ZN12dmGameObject10PostUpdateEPNS_16CollectionHandleE
MSa:_sha384_starts_wrap
DYa:___pthread_self_707
SGa:_ctr_drbg_update_internal
B0:__ZN8dmRender12RenderObject4InitEv
lw:__ZN12dmGameSystem22GuiResolvePathCallbackEPN5dmGui5SceneEPKcj
Fya:__ZN5dmGui10DeleteNodeEPNS_5SceneEjb
nV:__ZN11b2GridShapeD2Ev
Fra:__ZN5dmSys7OpenURLEPKc
Ia:invoke_viifi
nYa:_do_read_454
fRa:_ecp_select_comb
iKa:_ssl_mfl_code_to_length
o$a:dynCall_ii
Nf:_emscripten_glUniform4fv
hE:__ZN12dmGameSystemL15TileMap_SetTileEP9lua_State
ht:__ZN10dmResourceL21PreloadPathDescriptorEPNS_17ResourcePreloaderEsRKNS_14PathDescriptorE
Wja:_ll_module
Ct:__GLOBAL__sub_I_liveupdate_ddf_cpp
vUa:_x509_date_is_valid
xG:__ZN10dmGraphics12DisableStateEPNS_7ContextEj
Ioa:__ZN11dmHttpCache20GetConsistencyPolicyEPNS_5CacheE
O_:__ZN15b2DistanceJointD0Ev
b1a:_emscripten_glFlush__wrapper
BD:__ZN12dmGameSystemL18Sound_SetGroupGainEP9lua_State
SAa:__ZN5dmGui11GetLuaStateEPNS_7ContextE
Fda:_luaF_getlocalname
kCa:__ZN5dmGuiL25LuaGetTextMetricsFromNodeEP9lua_State
JH:__ZN9dmPhysics16GetJointParams2DEPNS_7World2DEPvNS_9JointTypeERNS_18ConnectJointParamsE
cca:_lua_touserdata
eda:_luaG_ordererror
mR:__ZNK17btConvexHullShape37localGetSupportingVertexWithoutMarginERK9btVector3
DZa:_rename
xJa:_tls_prf_sha256
P4:__ZN8dmScriptL20DefaultLuaValueToDDFEP9lua_StatePKN5dmDDF15FieldDescriptorEPcPS6_S7_PKcS6_
jh:_glDeleteFramebuffers
wsa:_deflateReset
BFa:__ZN7dmSound6UpdateEv
Tva:_UpsampleRgbLinePair
Ds:__ZN10dmResource7GetTypeEPNS_16SResourceFactoryEPvPm
vea:_funcargs
Gm:__ZN12dmGameObject19ConstructInstanceIdEj
XXa:_write
pUa:_x509_get_hash_alg
oNa:_mbedtls_mpi_zeroize
x5a:_emscripten_glCopyTexSubImage2D__wrapper
Dua:_VFilter16i
PT:__ZN28btCompoundCollisionAlgorithmD2Ev
iP:__ZN13btGhostObject28addOverlappingObjectInternalEP17btBroadphaseProxyS1_
hf:_emscripten_glStencilOpSeparate
AB:__ZN12dmGameSystem20ResSoundDataRecreateERKN10dmResource22ResourceRecreateParamsE
GJ:__ZN35btSequentialImpulseConstraintSolver14convertContactEP20btPersistentManifoldRK19btContactSolverInfo
OBa:__ZN5dmGuiL15LuaSetLineBreakEP9lua_State
Ns:__ZN10dmResource34UnregisterResourceReloadedCallbackEPNS_16SResourceFactoryEPFvRKNS_22ResourceReloadedParamsEEPv
Pya:__ZN5dmGui13MoveNodeAboveEPNS_5SceneEjj
r0:__ZN8dmRender14AddMaterialTagEPNS_8MaterialEy
C5:__ZN8dmScript19InitializeLuasocketEP9lua_State
jaa:__GLOBAL__sub_I_ddf_script_cpp
Qm:__ZN12dmGameObject6DeleteEPNS_10CollectionEPNS_8InstanceEb
O4a:_emscripten_glGetUniformIndices__wrapper
k3:__ZN8dmScript13GetConfigFileEPNS_7ContextE
cra:__ZN8dmSocket6AcceptEiPNS_7AddressEPi
Wy:__ZN12dmGameSystem21CompSpriteSetPropertyERKN12dmGameObject26ComponentSetPropertyParamsE
mLa:_ssl_dtls_replay_reset
Iua:_SimpleHFilter16
Xd:_emscripten_glGetError
Yga:_luaB_cocreate
xj:emscriptenWebGLGet
f9:_meth_getstats
Ot:__ZN12dmGameSystem20InitializeScriptLibsERKNS_16ScriptLibContextE
Sq:__ZN5dmDDF11InputBuffer4SeekEj
aZ:__ZN25b2PolygonAndCircleContact8EvaluateEP10b2ManifoldRK11b2TransformS4_
tDa:__ZN5dmGuiL26GuiScriptInstance_tostringEP9lua_State
WJ:__ZN23btDiscreteDynamicsWorld9serializeEP12btSerializer
vQa:_mbedtls_ecdsa_read_signature
Wia:_math_tan
Pua:_RD4
Q9:_socket_open
GM:__ZN28btHashedOverlappingPairCacheD2Ev
p9:_timeout_gettime
F0a:_emscripten_glIsEnabled__wrapper
ef:_emscripten_glStencilMask
rz:__ZN12dmGameSystem23CompTileGridGetPropertyERKN12dmGameObject26ComponentGetPropertyParamsERNS0_12PropertyDescE
l5:__ZN8dmScriptL15GetStringHelperEP9lua_StateiRb
AW:__ZN16b2PrismaticJoint13SetMotorSpeedEf
wW:__ZNK16b2PrismaticJoint13GetUpperLimitEv
Oza:__ZN5dmGui13GetNodeFontIdEPNS_5SceneEj
Mq:__ZN5dmDDFL18DoLoadDefaultFieldEPNS_11LoadContextEPKNS_15FieldDescriptorEPNS_7MessageE
vW:__ZNK16b2PrismaticJoint13GetLowerLimitEv
dx:__ZN12dmGameSystem16CompModelDestroyERKN12dmGameObject22ComponentDestroyParamsE
vIa:_mbedtls_rsa_rsaes_oaep_encrypt
J$:__ZN8dmRender21InitializeTextContextEPNS_13RenderContextEj
we:_emscripten_glGetUniformiv
xGa:__ZN10dmDeviceJS13DeviceJSCloseEPv
QBa:__ZN5dmGuiL15LuaGetBlendModeEP9lua_State
b4:__ZN8dmScript14InvokeCallbackEPNS_15LuaCallbackInfoEPFvP9lua_StatePvES4_
pd:_emscripten_glDrawArraysInstanced
fW:__Z5b2LogPKcz
OT:__ZN16btBoxBoxDetectorC2EP10btBoxShapeS1_
BPa:_mbedtls_des3_free
rT:__ZL10insertleafP6btDbvtP10btDbvtNodeS2_
tha:_luaB_select
hy:__ZN12dmGameSystem15SpineModelWorldD2Ev
Mo:__ZN12dmGameObject23Script_GetWorldPositionEP9lua_State
wLa:_mbedtls_ssl_session_init
Hf:_emscripten_glUniform3f
eQ:__ZNK10btBoxShape36getNumPreferredPenetrationDirectionsEv
Ara:__ZN5dmSys6UnlinkEPKc
lRa:_mbedtls_mpi_add_mod
cO:__ZN12btConvexCast10CastResultD2Ev
c3a:_emscripten_glVertexAttribI4uiv__wrapper
yF:__ZN10dmGraphics14NewIndexBufferEPNS_7ContextEjPKvj
fla:__ZN10dmParticle13CreateContextEjj
M1a:_emscripten_glEnable__wrapper
OWa:_printf_core
dKa:_ssl_get_maximum_datagram_size
sF:__ZN10dmGraphics15SetSwapIntervalEPNS_7ContextEj
EF:__ZN10dmGraphics23DeleteVertexDeclarationEPNS_17VertexDeclarationE
SOa:_des3_set3key_enc_wrap
Y4:__ZN8dmScriptL26InternalFinalizeExtensionsEPNS_7ContextE
lka:__ZN5dmHID22SetGamepadFuncUserdataEPNS_7ContextEPv
uda:_luaU_dump
KX:__ZN9b2Fixture11SynchronizeEP12b2BroadPhaseRK11b2TransformS4_
Th:_glStencilFunc
yL:__ZNK20btAxisSweep3InternalItE17getBroadphaseAabbER9btVector3S2_
JEa:__ZN12dmLiveUpdate18CreateResourceHashEN15dmLiveUpdateDDF13HashAlgorithmEPKcmPh
kqa:__ZN9dmMessage8ResetURLERKNS_3URLE
kh:_glDeleteProgram
Ms:__ZN10dmResource32RegisterResourceReloadedCallbackEPNS_16SResourceFactoryEPFvRKNS_22ResourceReloadedParamsEEPv
Jb:__addDays
YH:__ZN9dmPhysics30ProcessRayCastResultCallback3DD0Ev
SCa:__ZN5dmGuiL17LuaSetOuterBoundsEP9lua_State
DQ:__ZNK14btCapsuleShape37localGetSupportingVertexWithoutMarginERK9btVector3
VR:__ZNK13btSphereShape7getNameEv
wp:__ZN12dmGameObject18RegisterSubModulesEPN10dmResource16SResourceFactoryEPN8dmScript7ContextEPN8dmLuaDDF9LuaModuleE
gh:_glCreateShader
Fn:__ZN12dmGameObject10PostUpdateEPNS_8RegisterE
f4:__ZN8dmScript11CheckBufferEP9lua_Statei
OKa:_ssl_bitmask_check
oOa:_mbedtls_cipher_setup
CR:__ZN13btConvexShapeD2Ev
ZGa:_mbedtls_entropy_free
o5:__ZN8dmScript19HttpResponseDecoderEP9lua_StatePKN5dmDDF10DescriptorEPKc
BDa:__ZN5dmGuiL20GuiScriptResolvePathEP9lua_State
DW:__ZNK15b2RevoluteJoint10GetAnchorBEv
u$a:dynCall_iiiiii
DWa:___shgetc
Ena:__ZN5dmDNS10InitializeEv
rKa:_ssl_flight_append
fOa:_mbedtls_mpi_fill_random
xga:_condjump
PF:__ZN10dmGraphicsL16TryCompileShaderEjPKvi
zYa:_fmodl
YJa:_mbedtls_ssl_flush_output
_Ea:__ZN7dmSoundL25MixResampleIdentityStereoIhLi128ELi255EEEvPKNS_10MixContextEPNS_13SoundInstanceEjjPfj
yEa:__ZN12dmLiveUpdate18SetNewArchiveIndexEPN17dmResourceArchive21ArchiveIndexContainerEPNS0_12ArchiveIndexEb
BKa:_ssl_load_six_bytes
_9:_socket_accept
jp:__ZN12dmGameObjectL12ScriptGetURLEP9lua_State
MJ:__ZN11btRigidBodyD2Ev
Bua:_VFilter8
E0:__ZN8dmRender16NewRenderContextEPN10dmGraphics7ContextERKNS_19RenderContextParamsE
y_:__ZN15b2CircleContact6CreateEP9b2FixtureiS1_iP16b2BlockAllocator
n4a:_emscripten_glBufferData__wrapper
N2a:_emscripten_glBlendEquationSeparate__wrapper
XU:__ZN15CProfileManager5ResetEv
NIa:_mbedtls_rsa_rsassa_pkcs1_v15_verify
Lea:_setnodevector
uh:_glEnable
ui:_glfwIconifyWindow
Lh:_glGetString
a8:__ZN8dmScriptL11Vector3_mulEP9lua_State
ir:__ZN5dmDDF7Message15ReadScalarFieldEPNS_11LoadContextENS_8WireTypeEPKNS_15FieldDescriptorEPNS_11InputBufferE
J4a:_emscripten_glColorMask__wrapper
sza:__ZN5dmGui14SetNodeTextureEPNS_5SceneEjy
RN:__ZN9btHashMapI9btHashPtrP16btCollisionShapeE10growTablesERKS0_
wta:_WebPInitCustomIo
yj:emscriptenWebGLGetTexPixelData
Og:_gettimeofday
wha:_luaB_tonumber
mPa:_camellia_setkey_dec_wrap
rU:__ZN24btPerturbedContactResultD0Ev
h4:__ZN8dmScript14GetStreamValueIxEEdPvi
VYa:_atoi
lB:__ZN12dmGameSystem18ResRigScenePreloadERKN10dmResource21ResourcePreloadParamsE
dAa:__ZN5dmGui19CancelNodeSpineAnimEPNS_5SceneEj
I4a:_emscripten_glScissor__wrapper
UP:__ZNK10btBoxShape7getAabbERK11btTransformR9btVector3S4_
pk:FUNCTION_TABLE_viifi
NM:__ZN28btHashedOverlappingPairCache23getOverlappingPairArrayEv
sA:__ZN12dmGameSystem16AcquireResourcesEPN10dmResource16SResourceFactoryEPN5dmGui7ContextEPN8dmGuiDDF9SceneDescEPNS_16GuiSceneResourceEPKc
HZa:_strcasestr
dM:__ZN16btDbvtBroadphase12destroyProxyEP17btBroadphaseProxyP12btDispatcher
Kg:_getenv
xF:__ZN10dmGraphics22GetMaxElementsVerticesEPNS_7ContextE
wia:_math_acos
MVa:_dummy
tC:__ZN12dmGameSystem32CollectionProxy_MissingResourcesEP9lua_State
Z3:__ZN8dmScript14CreateCallbackEP9lua_Statei
C2:__ZN8dmRender26UpdateRenderScriptInstanceEPNS_20RenderScriptInstanceEf
pna:__ZN12dmConfigFile6DeleteEPNS_6ConfigE
wL:__ZN20btAxisSweep3InternalItE23getOverlappingPairCacheEv
li:_glfwGetJoystickPos
G3:__ZN8dmScript14NewScriptWorldEPNS_7ContextE
lO:__ZN16btCollisionWorld16updateSingleAabbEP17btCollisionObject
tw:__ZN12dmGameSystem6ReHashEPNS_14LabelComponentE
d3a:_emscripten_glVertexAttribI4bv__wrapper
VUa:_mbedtls_ccm_star_auth_decrypt
FI:__ZN9dmPhysics12OverlapCacheC2Ej
A1a:_emscripten_glLinkProgram__wrapper
z2a:_emscripten_glVertexAttrib2fv__wrapper
Rq:__ZN5dmDDF11InputBuffer4TellEv
wTa:_ssl_parse_server_key_exchange
P5:__ZN8dmScript10ResolveURLEP9lua_StatePKcPN9dmMessage3URLES6_
mK:__ZN23btDiscreteDynamicsWorld10addVehicleEP17btActionInterface
yV:__ZNK11b2GridShape20GetEdgeShapesForCellEjP11b2EdgeShapejj
S4a:_emscripten_glVertexAttribI3ui__wrapper
DBa:__ZN5dmGui17LuaSetSpineCursorEP9lua_State
WW:__ZN15b2RevoluteJoint9SetLimitsEff
R0:__ZN8dmRender13SetViewMatrixEPNS_13RenderContextERKN10Vectormath3Aos7Matrix4E
nda:_luaD_call
Qna:_dmHashEnableReverseHash
m1a:_emscripten_glLineWidth__wrapper
Cma:__ZN5dmRig14GetVertexCountEPNS_11RigInstanceE
W2a:_emscripten_glVertexAttribI1ui__wrapper
SX:__ZN7b2World11DestroyBodyEP6b2Body
te:_emscripten_glGetUniformIndices
io:__ZN12dmGameObject8PushBoolEPNS_24PropertyContainerBuilderEyb
p5:__ZN8dmScript10OnHttpLoadEPviS0_iPKc
vB:__ZN12dmGameSystem14ResSoundCreateERKN10dmResource20ResourceCreateParamsE
qF:__ZN10dmGraphics10BeginFrameEPNS_7ContextE
Eaa:_global_newtry
CIa:_size_greater_than
S6:__ZN8dmScript6ToQuatEP9lua_Statei
Wra:__ZN8dmThread11GetTlsValueEj
Cw:__ZN12dmGameSystem18CompLabelOnMessageERKN12dmGameObject24ComponentOnMessageParamsE
vz:__ZN12dmGameSystem22ResAnimationSetPreloadERKN10dmResource21ResourcePreloadParamsE
zZa:_freopen
HPa:_mbedtls_des3_set2key_dec
To:__ZN12dmGameObject14Script_AnimateEP9lua_State
O5:__ZN8dmScript10ResolveURLEP9lua_StateiPN9dmMessage3URLES4_
HV:__ZNK14b2PolygonShape11ComputeAABBEP6b2AABBRK11b2Transformi
HFa:__ZN12dmSoundCodecL15StbVorbisDecodeEPvPcjPj
K_:__ZNK15b2DistanceJoint10GetAnchorBEv
xB:__ZN12dmGameSystem16ResSoundRecreateERKN10dmResource22ResourceRecreateParamsE
Yp:__ZN12dmGameObject9AnimWorldD2Ev
Hm:__ZN12dmGameObject20AcquireInstanceIndexEPNS_16CollectionHandleE
Ou:__ZN12dmGameSystem20ContactPointCallbackERKN9dmPhysics12ContactPointEPv
s4a:_emscripten_glUniformMatrix4fv__wrapper
xda:_luaF_newLclosure
lsa:_DecodeInto
zea:_luaE_newthread
cMa:_mbedtls_ssl_hash_from_md_alg
He:_emscripten_glIsFramebuffer
xc:_emscripten_glBlendEquationSeparate
_oa:__ZN12dmHttpClientL7ReceiveEPNS_8ResponseEPviPi
mE:__ZN12dmGameSystemL11SetListenerEP9lua_State
Jg:_getaddrinfo
WAa:__ZN5dmGuiL12LuaCheckNodeEP9lua_StateiPj
Fp:__ZN12dmGameObject12ResLuaCreateERKN10dmResource20ResourceCreateParamsE
Fx:__ZN12dmGameSystem11GetPropertyERN12dmGameObject12PropertyDescEyRKN10Vectormath3Aos7Vector3ERKNS_11PropVector3E
uz:__ZN12dmGameSystemL31CompTileGridSetConstantCallbackEPvyPjRKN12dmGameObject11PropertyVarE
mta:_WebPFreeDecBuffer
NOa:_chacha20_setkey_wrap
z9:_udp_create
Exa:__ZN5dmGui14SetDefaultFontEPNS_7ContextEPv
GFa:__ZN12dmSoundCodec20StbVorbisCloseStreamEPv
L2a:_emscripten_glVertexAttribDivisor__wrapper
yu:__ZN12dmGameSystem26CompCollectionProxyOnInputERKN12dmGameObject22ComponentOnInputParamsE
y$a:dynCall_iiiiiiiiii
sO:__ZZN16btCollisionWorld17objectQuerySingleEPK13btConvexShapeRK11btTransformS5_P17btCollisionObjectPK16btCollisionShapeS5_RNS_20ConvexResultCallbackEfEN32BridgeTriangleConvexcastCallback9reportHitE_0RK9btVector3SG_fii
tF:__ZN10dmGraphics15NewVertexBufferEPNS_7ContextEjPKvj
gva:_DC8uvNoTopLeft
cma:__ZN10dmParticle19GetVertexBufferSizeEjNS_20ParticleVertexFormatE
eI:__ZN9dmPhysics20NewCollisionObject3DEPNS_7World3DERKNS_19CollisionObjectDataEPPvPN10Vectormath3Aos7Vector3EPNS8_4QuatEj
C0a:_emscripten_glIsFramebuffer__wrapper
Mc:_emscripten_glClearDepthf
rqa:__ZN7dmMutex3NewEv
SK:__ZNK11btRigidBody9serializeEPvP12btSerializer
Fja:_str_rep
mga:_luaK_setoneret
Bna:__ZN4dLib12SetDebugModeEb
JM:__ZN28btHashedOverlappingPairCache21removeOverlappingPairEP17btBroadphaseProxyS1_P12btDispatcher
tVa:_poly1305_process
Nt:__ZN12dmGameSystem16ScriptLibContextC2Ev
YXa:_read
Rd:_emscripten_glGetActiveUniformsiv
Ru:__ZN12dmGameSystemL9BroadCastIN12dmPhysicsDDF15TriggerResponseEEEvPT_PN12dmGameObject8InstanceEyt
sc:_emscripten_glBindRenderbuffer
ND:__ZN12dmGameSystem18SpineComp_PlayAnimEP9lua_State
Yza:__ZN5dmGui27SetNodeFlipbookPlaybackRateEPNS_5SceneEjf
wS:__ZZN33btMinkowskiPenetrationDepthSolver12calcPenDepthER22btVoronoiSimplexSolverPK13btConvexShapeS4_RK11btTransformS7_R9btVector3S9_S9_P12btIDebugDrawP12btStackAllocEN20btIntermediateResult15addContactPointERKS8_SG_f
uAa:__ZN5dmGui18GetNodeOuterBoundsEPNS_5SceneEj
Uy:__ZN12dmGameSystem21CompSpriteGetPropertyERKN12dmGameObject26ComponentGetPropertyParamsERNS0_12PropertyDescE
iN:__ZN21btCollisionDispatcher13clearManifoldEP20btPersistentManifold
tYa:___floatscan
ww:__ZN12dmGameSystem16CompLabelDestroyERKN12dmGameObject22ComponentDestroyParamsE
oG:__ZN10dmGraphics22GetTextureResourceSizeEPNS_7TextureE
ZLa:_mbedtls_ssl_config_init
vpa:__ZL20stbi__zbuild_huffmanP14stbi__zhuffmanPKhi
Sda:_luaC_barrierf
zi:_glfwResetKeyboard
Nka:__ZN5dmHID13ResetKeyboardEPNS_7ContextE
CFa:__ZN7dmSound17IsPhoneCallActiveEv
eja:_os_setlocale
jpa:__ZL15stbi__load_mainP13stbi__contextPiS1_S1_iP17stbi__result_infoi
$Na:_mbedtls_mpi_mod_mpi
fMa:_mbedtls_ssl_get_key_exchange_md_tls1_2
Ka:invoke_viifii
c1a:_emscripten_glEndTransformFeedback__wrapper
Eka:__ZN5dmHID4InitEPNS_7ContextE
lo:__ZN12dmGameObject7PushURLEPNS_24PropertyContainerBuilderEyPKc
Dy:__GLOBAL__sub_I_comp_sprite_cpp
El:__ZN8dmRecord3NewEPKNS_9NewParamsEPPNS_8RecorderE
Yfa:_luaK_nil
WNa:_mbedtls_mpi_read_binary
gQa:_ecdh_read_params_internal
Vta:_VP8Decode
zqa:__ZN15dmPoolAllocator6DeleteEPNS_4PoolE
R_:__ZN15b2DistanceJoint24SolvePositionConstraintsERK12b2SolverData
nsa:_WebPIoInitFromOptions
o:setjmpId
du:__ZN12dmGameSystem27CompCollectionFactoryCreateERKN12dmGameObject21ComponentCreateParamsE
Ln:__ZN12dmGameObject11GetRegisterEPNS_16CollectionHandleE
YCa:__ZN5dmGuiL20LuaGetFlipbookCursorEP9lua_State
xN:__ZN17btCollisionObjectD0Ev
bta:__ZN16dmConnectionPool5CloseEPNS_14ConnectionPoolEj
Qz:__ZN12dmGameSystem16AcquireResourcesEPN10dmResource16SResourceFactoryEPNS_14PhysicsContextEPKvjPNS_19ConvexShapeResourceEPKc
nTa:_mbedtls_ssl_list_ciphersuites
P$a:dynCall_viid
SN:__ZN24btBroadphaseAabbCallbackD2Ev
Q$a:dynCall_viif
U$a:dynCall_viii
dJ:__ZN12btIDebugDraw13drawTransformERK11btTransformf
CI:__ZN9dmPhysics14RayCastRequestC2Ev
gO:__ZN17DebugDrawcallback15processTriangleEP9btVector3ii
LTa:_ssl_parse_server_ecdh_params
vm:__ZN12dmGameObject18SortComponentTypesEPNS_8RegisterE
sZ:__ZN12b2MouseJointD0Ev
fg:_emscripten_glVertexAttribI1iv
zc:_emscripten_glBlendFuncSeparate
aL:__ZN11btRigidBody10setGravityERK9btVector3
Joa:__ZN11dmHttpCache7IterateEPNS_5CacheEPvPFvS2_PKNS_9EntryInfoEE
fra:__ZN8dmSocket6ListenEii
VWa:_pad
DF:__ZN10dmGraphics20NewVertexDeclarationEPNS_7ContextEPNS_13VertexElementEj
bb:___assert_fail
nUa:_mbedtls_x509_get_alg
SU:__Z21btAlignedFreeInternalPv
QS:__ZNK15btTriangleShape11getNumEdgesEv
d_:__ZN8b2Island5SolveEP9b2ProfileRK10b2TimeStepRK6b2Vec2b
n5:__ZN8dmScript15InitializeHtml5EP9lua_State
Lz:__ZN12dmGameSystem16AcquireResourcesEPNS_14PhysicsContextEPN10dmResource16SResourceFactoryEPKvjPNS_23CollisionObjectResourceEPKc
VY:__ZN22b2GridAndCircleContactD0Ev
FY:__ZNK7b2Timer15GetMillisecondsEv
A4a:_emscripten_glGetFramebufferAttachmentParameteriv__wrapper
uTa:_ssl_write_client_hello
spa:__ZL13stbi__get32beP13stbi__context
Qoa:__ZN12dmHttpClient8Response7ConnectEPKctbi
dH:__ZN9dmPhysics14SetDrawDebug2DEPNS_7World2DEb
qm:__ZN12dmGameObject16DeleteCollectionEPNS_16CollectionHandleE
g$a:dynCall_fiifii
p1a:_emscripten_glPolygonOffset__wrapper
fV:__ZN11b2EdgeShapeD0Ev
saa:_auxiliar_typeerror
mva:_VP8LTransformColorInverse_C
S$a:dynCall_viififfi
YX:__ZNK7b2World7RayCastEP17b2RayCastCallbackRK6b2Vec2S4_
iTa:_pem_des3_decrypt
Dn:__ZN12dmGameObject6RenderEPNS_16CollectionHandleE
Lsa:__tr_flush_bits
uXa:___h_errno_location
AP:__ZN32btSphereSphereCollisionAlgorithm21calculateTimeOfImpactEP17btCollisionObjectS1_RK16btDispatcherInfoP16btManifoldResult
T3:__ZN8dmScriptL21BacktraceErrorHandlerEP9lua_State
Tm:__ZN12dmGameObjectL11MoveAllDownEPNS_10CollectionEPNS_8InstanceE
una:__ZN7dmCryptL11EncryptXTeaEyPj
EG:__ZN10dmGraphics12SetStencilOpEPNS_7ContextEjjj
Wxa:__ZN5dmGui10AddTextureEPNS_5SceneEPKcPvNS_15NodeTextureTypeEjj
Jr:__ZN5dmDDF12OutputStream13WriteVarInt32Ej
tia:_io_tostring
tW:__ZNK16b2PrismaticJoint14IsLimitEnabledEv
vga:_luaK_self
Uz:__ZN12dmGameSystem24ResDisplayProfilesCreateERKN10dmResource20ResourceCreateParamsE
Yta:_VP8LNew
DDa:__ZN5dmGui14FinalizeScriptEP9lua_StatePN8dmScript7ContextE
VIa:_mbedtls_sha1_free
Mga:_llex
GQa:_mbedtls_ecp_keypair_init
kXa:___strchrnul
eF:__ZN10dmGraphics13IconifyWindowEPNS_7ContextE
HG:__ZN10dmGraphics12JobQueuePushERKNS_7JobDescE
oZa:_localeconv
KWa:_sprintf
yz:__ZN12dmGameSystem23ResAnimationSetRecreateERKN10dmResource22ResourceRecreateParamsE
wk:FUNCTION_TABLE_viiiifffffif
yya:__ZNSt3__227__insertion_sort_incompleteIRN5dmGui19RenderEntrySortPredEPNS1_11RenderEntryEEEbT0_S6_T_
sFa:__ZN7dmSound12GetGroupGainEyPf
iw:__ZN12dmGameSystem15CompGuiOnReloadERKN12dmGameObject23ComponentOnReloadParamsE
aVa:_chacha20_block
XRa:_mbedtls_hmac_drbg_reseed
gta:__ZN16dmConnectionPool6ReopenEPNS_14ConnectionPoolE
TFa:_vorbis_finish_frame
$5:__ZN8dmScript8Sys_LoadEP9lua_State
Bpa:__ZL14resample_row_1PhS_S_ii
Tda:_luaC_barrierback
dla:__ZN7dmInput27GamepadConnectivityCallbackEjbPv
WE:__ZN10dmGraphicsL13OnWindowFocusEi
ada:_luaG_runerror
gQ:__ZNK10btBoxShape14getNumVerticesEv
BG:__ZN10dmGraphics12SetDepthFuncEPNS_7ContextEj
iQa:_mbedtls_ecdh_grp_id
ud:_emscripten_glEnable
V8:_global_connect
YBa:__ZN5dmGuiL13LuaGetTextureEP9lua_State
Qca:_lua_sethook
nea:_forbody
ly:__ZN12dmGameSystem16UpdateTransformsEPNS_15SpineModelWorldE
QHa:_eckey_debug
hka:__ZN11dmExtension11AppFinalizeEPNS_9AppParamsE
lx:__ZN12dmGameSystem20CompModelGetPropertyERKN12dmGameObject26ComponentGetPropertyParamsERNS0_12PropertyDescE
LEa:__ZN12dmDeviceNull14DeviceNullOpenEPKN7dmSound16OpenDeviceParamsEPPv
_o:__ZN12dmGameObject16Script_ScreenRayEP9lua_State
k4:__ZN8dmScript14GetStreamValueIaEEdPvi
esa:__ZN6dmWebP10DecodeRGBAEPKvmPvmm
f0a:dynCall_viiiiiiiiii
kx:__ZN12dmGameSystemL28CompModelSetConstantCallbackEPvyPjRKN12dmGameObject11PropertyVarE
Hoa:__ZN11dmHttpCache20SetConsistencyPolicyEPNS_5CacheENS_17ConsistencyPolicyE
o_:__ZN23b2ChainAndCircleContact8EvaluateEP10b2ManifoldRK11b2TransformS4_
d4a:_emscripten_glTexParameterIuiv__wrapper
IAa:__ZN5dmGui8PickNodeEPNS_5SceneEjff
u7:__ZN8dmScriptL5SlerpEP9lua_State
qP:__ZN25btSimulationIslandManager21updateActivationStateEP16btCollisionWorldP12btDispatcher
t:tempBigInt
SPa:_dhm_check_range
Yf:_emscripten_glVertexAttrib1fv
xQa:_mbedtls_ecdsa_from_keypair
Gk:FUNCTION_TABLE_viiiiiiiiiii
vv:__ZN12dmGameSystem19CompFactoryNewWorldERKN12dmGameObject23ComponentNewWorldParamsE
uV:__ZNK11b2GridShape11ComputeMassEP10b2MassDataf
wua:_TransformDC
UEa:__ZN7dmSoundL17MixResampleUpMonoIhLi128ELi255EEEvPKNS_10MixContextEPNS_13SoundInstanceEjjPfj
an:__ZN12dmGameObject13GetWorldScaleEPNS_8InstanceE
sE:__ZN12dmGameSystem27ScriptWindowOnWindowResizedEii
nta:_VP8InitDithering
FL:__ZN20btAxisSweep3InternalItE9sortMaxUpEitP12btDispatcherb
rLa:_mbedtls_ssl_reset_checksum
ON:__ZN16btCollisionWorld25serializeCollisionObjectsEP12btSerializer
T5:__ZN8dmScript13InitializeMsgEP9lua_State
gP:__ZN13btGhostObjectD2Ev
q8:__ZN8dmScript9CheckQuatEP9lua_Statei
Qpa:__Z15dmLogInitializePK11dmLogParams
su:__ZN12dmGameSystem30CompCollectionProxyAddToUpdateERKN12dmGameObject26ComponentAddToUpdateParamsE
qo:__ZN12dmGameObject32DestroyPropertyContainerCallbackEm
EA:__ZN12dmGameSystem16ResLabelRecreateERKN10dmResource22ResourceRecreateParamsE
via:_math_abs
Ysa:__ZN16dmConnectionPool14ConnectionPoolC2EPKNS_6ParamsE
dUa:_ssl_write_supported_elliptic_curves_ext
Pra:__ZN5dmSys12ResourceSizeEPKcPj
Kja:_match
bra:__ZN8dmSocket5GetFDEi
zu:__GLOBAL__sub_I_comp_collision_object_cpp
fq:__ZN12dmGameObject16CancelAnimationsEPNS_16CollectionHandleEPNS_8InstanceE
tz:__ZN12dmGameSystem23CompTileGridSetPropertyERKN12dmGameObject26ComponentSetPropertyParamsE
gi:_glfwGetDefaultFramebuffer
Gd:_emscripten_glGenBuffers
sv:__ZN12dmGameSystem18CompEmitterDestroyERKN12dmGameObject22ComponentDestroyParamsE
cea:_luaO_pushvfstring
H1a:_emscripten_glMatrixMode__wrapper
NSa:_sha384_update_wrap
tt:__ZN11dmLoadQueue11CreateQueueEPN10dmResource16SResourceFactoryE
o1:__ZN8dmRender16GetNamedConstantEPNS_19NamedConstantBufferEPKcRN10Vectormath3Aos7Vector4E
X1a:_emscripten_glBeginTransformFeedback__wrapper
Sy:__ZN12dmGameSystemL29CompSpriteSetConstantCallbackEPvyPjRKN12dmGameObject11PropertyVarE
bma:__ZN10dmParticle19ResetRenderConstantEPNS_7ContextEjyy
PO:__ZN34btSphereTriangleCollisionAlgorithm10CreateFunc24CreateCollisionAlgorithmER36btCollisionAlgorithmConstructionInfoP17btCollisionObjectS4_
lb:___setErrNo
ACa:__ZN5dmGuiL14LuaGetSizeModeEP9lua_State
Zf:_emscripten_glVertexAttrib2f
K0:__ZN8dmRender22RenderListMakeDispatchEPNS_13RenderContextEPFvRKNS_24RenderListDispatchParamsEEPv
Ry:__ZN12dmGameSystem19CompSpriteOnMessageERKN12dmGameObject24ComponentOnMessageParamsE
Ska:__ZN7dmInput10NewBindingEPNS_7ContextE
mM:__ZN16btDbvtBroadphase9resetPoolEP12btDispatcher
js:__ZN11dmHashTableIyPKcE11SetCapacityEjj
$U:__ZNK13b2CircleShape5CloneEP16b2BlockAllocator
QX:__ZN7b2World12SetDebugDrawEP6b2Draw
GMa:_x509_crt_merge_flags_with_cb
NAa:__ZN5dmGui9CloneNodeEPNS_5SceneEjPj
vl:__ZL24JsToDef_SendEmptyMessagePKc
E8:_bit_rshift
Ffa:_luaL_register
QQa:_mbedtls_ecp_tls_read_point
Fua:_VFilter8i
Xf:_emscripten_glVertexAttrib1f
TA:__ZN12dmGameSystem15ResModelPreloadERKN10dmResource21ResourcePreloadParamsE
$3:__ZN8dmScript15DestroyCallbackEPNS_15LuaCallbackInfoE
y9:_global_create6_7469
doa:_dmHashFinal32
UO:__ZN28btCompoundCollisionAlgorithm17SwappedCreateFuncD0Ev
BY:__ZN16b2StackAllocator8AllocateEi
m0:__ZN8dmRender20GetMaterialUserData2EPNS_8MaterialE
$p:__ZN12dmGameObjectL23RemoveAnimationCallbackEPNS_9AnimWorldEPNS_9AnimationE
k$a:dynCall_fiiiiif
z:Math_abs
Ug:_glBindTexture
FO:__ZN31btDefaultCollisionConfiguration17getStackAllocatorEv
CXa:_snprintf
y2a:_emscripten_glVertexAttrib1fv__wrapper
_7:__ZN8dmScriptL11Vector3_addEP9lua_State
dca:_lua_tothread
Ce:_emscripten_glGetVertexAttribiv
iSa:_mbedtls_md_hmac_update
By:__ZN12dmGameSystem21CompSpineModelSetSkinEPNS_19SpineModelComponentEy
Nya:__ZN5dmGui14GetSceneScriptEPNS_5SceneE
p$:__ZN8dmRender23ClearDebugRenderObjectsEPNS_13RenderContextE
y4a:_emscripten_glGetProgramInfoLog__wrapper
H6:__ZN8dmScript23TimerInitializeInstanceEPNS_11ScriptWorldE
H_:__ZN24b2PositionSolverManifold10InitializeEP27b2ContactPositionConstraintRK11b2TransformS4_i
KH:__ZN9dmPhysics13DeleteJoint2DEPNS_7World2DEPv
XE:__ZN10dmGraphicsL20IsExtensionSupportedEPKcPKh
AH:__ZN9dmPhysics19SetAngularDamping2DEPvf
hZa:_dummy_269
vXa:_recv
wJ:__ZN18btConstraintSolver9allSolvedERK19btContactSolverInfoP12btIDebugDrawP12btStackAlloc
Ya:invoke_viiiiiiiiii
pV:__ZNK11b2GridShape5CloneEP16b2BlockAllocator
Lpa:__ZN6dmJson5ParseEPKcjPNS_8DocumentE
S0:__ZN8dmRender19SetProjectionMatrixEPNS_13RenderContextERKN10Vectormath3Aos7Matrix4E
f$:__ZN11b2GearJoint4DumpEv
Xq:__ZN5dmDDF11InputBuffer3EofEv
pZa:_ungetc
mi:_glfwGetKey
Q0:__ZN8dmRender18GetGraphicsContextEPNS_13RenderContextE
Xca:_lua_getinfo
fk:FUNCTION_TABLE_vfi
dk:FUNCTION_TABLE_vff
swa:_WebPConvertRGBA32ToUV_C
SF:__ZN10dmGraphics21DeleteFragmentProgramEm
XJ:__ZN23btDiscreteDynamicsWorld14stepSimulationEfif
b$a:_pthread_mutex_unlock
OW:__ZNK15b2RevoluteJoint14IsMotorEnabledEv
yda:_luaF_newupval
KC:__ZN12dmGameSystem19LuaModelComp_CancelEP9lua_State
ws:__ZN10dmResource12LoadResourceEPNS_16SResourceFactoryEPKcS3_PPvPj
Lt:__ZN12dmGameSystem22RegisterComponentTypesEPN10dmResource16SResourceFactoryEPN12dmGameObject8RegisterEPN8dmRender13RenderContextEPNS_14PhysicsContextEPNS_17ParticleFXContextEPNS_10GuiContextEPNS_13SpriteContextEPNS_22CollectionProxyContextEPNS_14FactoryContextEPNS_24CollectionFactoryContextEPNS_17SpineModelContextEPNS_12ModelContextEPNS_12LabelContextEPNS_14TilemapContextE
aBa:__ZN5dmGuiL23LuaCallbackCustomArgsCBEP9lua_StatePv
gYa:___fflush_unlocked
ep:__ZN12dmGameObjectL20ScriptInstanceGetURLEP9lua_State
F$:__ZN8dmRender13DeleteFontMapEPNS_7FontMapE
$ua:_DC16NoTopLeft
Yca:_getobjname
VOa:_des3_ctx_free
sN:__ZN23btCollisionPairCallback14processOverlapER16btBroadphasePair
lna:__ZN12dmConfigFileL8AddEntryEPNS_7ContextEPKcS3_
iX:__ZN6b2Body13ResetMassDataEv
tea:_assignment
lKa:_ssl_buffering_free
lta:_WebPInitDecBufferInternal
Bv:__ZN12dmGameSystemL23PreloadCompleteCallbackEPKN10dmResource31PreloaderCompleteCallbackParamsE_1822
ZTa:_ssl_parse_alpn_ext
nqa:__ZN9dmMessage8DispatchEyPFvPNS_7MessageEPvES2_
k_:__Z23b2CollideEdgeAndPolygonP10b2ManifoldPK11b2EdgeShapeRK11b2TransformPK14b2PolygonShapeS6_
PNa:_mbedtls_mpi_cmp_int
oD:__ZN12dmGameSystemL4LoadEP9lua_State
xTa:_ssl_parse_certificate_request
Yn:__ZN12dmGameObject12PropertyDescC2Ev
_ma:__ZN8dmBuffer13GetNumStreamsEjPj
QFa:_is_whole_packet_present
Wwa:_crc32
Lwa:_Init
lK:__ZN23btDiscreteDynamicsWorld11clearForcesEv
vR:__ZN17btConvexHullShapeC2EPKfii
l1a:_emscripten_glClearDepthf__wrapper
wca:_lua_getfenv
fWa:_mkdir
NNa:_mpi_mul_hlp
RE:__ZN10dmGraphics10InitializeEv
dj:_pthread_cond_init
o5a:_emscripten_glVertexAttribPointer__wrapper
ESa:_sha224_finish_wrap
gt:__ZN10dmResource12NewPreloaderEPNS_16SResourceFactoryERK7dmArrayIPKcE
Qd:_emscripten_glGetActiveUniformName
GA:__ZN12dmGameSystem15ResLightDestroyERKN10dmResource21ResourceDestroyParamsE
zRa:_ecp_group_load
L_:__ZNK15b2DistanceJoint16GetReactionForceEf
Hga:_luaX_lexerror
bLa:_mbedtls_ssl_own_cert
aXa:___pthread_self_686
woa:__ZN11dmHttpCache5BeginEPNS_5CacheEPKcS3_jPPNS_12CacheCreatorE
qGa:__ZN12dmSoundCodec10WavGetInfoEPvPNS_4InfoE
fVa:_mbedtls_chachapoly_setkey
Qia:_math_random
gla:__ZN10dmParticle7ContextC2Ejj
dSa:_mbedtls_md_starts
f8:__ZN8dmScriptL9Vector_gcEP9lua_State
h$:__ZN11b2GearJoint23InitVelocityConstraintsERK12b2SolverData
FXa:_hstrerror
B3a:_emscripten_glGetVertexAttribPointerv__wrapper
Una:__ZN11dmHashTableIy16ReverseHashEntryE3PutEyRKS0_
ZI:__ZN9dmPhysics11DebugDraw3D16drawContactPointERK9btVector3S3_fiS3_
lT:__ZN6btDbvtC2Ev
Aga:_codearith
j8:__ZN8dmScriptL15Vector_newindexEP9lua_State
haa:_socket_ioerror
zxa:__ZN5dmGui21GetPhysicalResolutionEPNS_5SceneERjS2_
cfa:_luaV_gettable
dv:__ZN12dmGameSystem12DestroyJointEPvS0_y
lq:__ZN12dmGameObject17CompScriptDestroyERKNS_22ComponentDestroyParamsE
WTa:_ssl_parse_extended_ms_ext
F4a:_emscripten_glDrawElements__wrapper
RV:__ZN9b2Simplex9ReadCacheEPK14b2SimplexCachePK15b2DistanceProxyRK11b2TransformS5_S8_
Eda:_luaF_freeclosure
cBa:__ZN5dmGui18LuaCancelAnimationEP9lua_State
mQ:__ZNK10btBoxShape8isInsideERK9btVector3f
p0:__ZN8dmRender22SetMaterialVertexSpaceEPNS_8MaterialEN11dmRenderDDF12MaterialDesc11VertexSpaceE
UQa:_mbedtls_ecp_check_privkey
Zxa:__ZN5dmGui13ClearTexturesEPNS_5SceneE
$Ja:_mbedtls_ssl_out_hdr_len
g2:__ZN8dmRenderL31RenderScriptInstanceResolvePathEP9lua_State
M7:__ZN8dmScriptL7Quat_eqEP9lua_State
tKa:_mbedtls_ssl_hs_hdr_len
Uf:_emscripten_glUniformMatrix4fv
M4:__ZN8dmScriptL10Buffer_lenEP9lua_State
tFa:__ZN7dmSound13GetGroupCountEv
sM:__ZN18btDbvtTreeColliderD0Ev
XOa:_des3_set2key_dec_wrap
zZ:__ZNK13b2PulleyJoint16GetReactionForceEf
Jna:__ZN5dmDNS13GetHostByNameEPKcPN8dmSocket7AddressEPNS_7ChannelEbb
hRa:_ecp_double_jac
NLa:_mbedtls_ssl_get_max_out_record_payload
Sqa:__ZN9dmProfile12ProfileScope10StartScopeEjPKcj
J2:__ZN8dmRender7CommandC2ENS_11CommandTypeEmm
Sna:__ZN11dmHashTableIj16ReverseHashEntryE11SetCapacityEjj
axa:_VP8ParseIntraModeRow
nca:_lua_pushboolean
Ta:invoke_viiiiii
hTa:_pem_get_iv
VG:__ZN9dmPhysics7World2DC2EPNS_9Context2DERKNS_14NewWorldParamsE
_da:_luaO_fb2int
Cwa:_VP8LDoFillBitWindow
Rra:__ZN8dmThread3NewEPFvPvEjS0_PKc
ej:_pthread_create
BWa:___shlim
u4:__ZN8dmScript14SetStreamValueIyEEvPvid
cRa:_ecp_normalize_jac
Us:__ZN17dmResourceArchive25ReloadBundledArchiveIndexEPKcS1_S1_S1_RPNS_21ArchiveIndexContainerERPv
N3:__ZN8dmScript23GetInstanceContextValueEP9lua_State
jE:__ZN12dmGameSystemL17TileMap_GetBoundsEP9lua_State
c2:__ZN8dmRenderL29RenderScriptInstance_tostringEP9lua_State
ena:__ZN12dmConfigFile10ParseErrorEPNS_7ContextENS_6ResultE
OF:__ZN10dmGraphics19ReloadVertexProgramEmPNS_10ShaderDesc6ShaderE
Pd:_emscripten_glGetActiveUniformBlockiv
VN:__ZN16btCollisionWorld13rayTestSingleERK11btTransformS2_P17btCollisionObjectPK16btCollisionShapeS2_RNS_17RayResultCallbackE
Jo:__ZN12dmGameObject18Script_SetRotationEP9lua_State
G6:__ZN8dmScript22TimerUpdateScriptWorldEPNS_11ScriptWorldEf
g:HEAPF32
CW:__ZNK15b2RevoluteJoint10GetAnchorAEv
cga:_luaK_ret
dy:__ZN12dmGameSystemL26CompSpineModelPoseCallbackEPvS0_
T:enlargeMemory
Y_a:_memcpy
eb:___cxa_begin_catch
Foa:__ZN11dmHttpCache11SetVerifiedEPNS_5CacheEPKcb
iga:_luaK_stringK
sn:__ZN12dmGameObject17SetBoneTransformsEPNS_8InstanceERN11dmTransform9TransformEPS3_j
se:_emscripten_glGetUniformBlockIndex
iy:__ZN12dmGameSystem20CompSpineModelCreateERKN12dmGameObject21ComponentCreateParamsE
t5a:_emscripten_glGetTransformFeedbackVarying__wrapper
nd:_emscripten_glDisablei
tE:__ZN12dmGameSystem18PlatformSetDimModeENS_7DimModeE
LP:__ZN11btUnionFind5resetEi
HHa:_rsa_free_wrap
Lua:_DC4
fza:__ZN5dmGui15SetNodePropertyEPNS_5SceneEjNS_8PropertyERKN10Vectormath3Aos7Vector4E
X6:__ZN8dmScriptL11Vector4_newEP9lua_State
Vea:_luaH_getn
Asa:_fill_window
aua:_DecodeImageStream
iba:_opt_set_broadcast
cc:_dmSysGetUserPersistentDataRoot
U:getTotalMemory
fm:__ZN11dmHashTableIyPN12dmGameObject10CollectionEE5EraseEy
jya:__ZN5dmGui14GetLayoutCountEPNS_5SceneE
JLa:_mbedtls_ssl_conf_rng
Hh:_glGetProgramInfoLog
hr:__ZN5dmDDF7MessageC2EPKNS_10DescriptorEPcjb
iK:__ZN23btDiscreteDynamicsWorld13getConstraintEi
OA:__ZN12dmGameSystem17ResMeshSetPreloadERKN10dmResource21ResourcePreloadParamsE
jH:__ZN9dmPhysics14NewGridShape2DEPNS_9Context2DEPvRKN10Vectormath3Aos6Point3Ejjjj
YU:__ZN15CProfileManager23Increment_Frame_CounterEv
fJa:_mbedtls_sha256_update_ret
N_a:_llvm_cttz_i32
aH:__ZN9dmPhysicsL8FlipBodyEPvff
wEa:__ZN12dmLiveUpdate18StoreResourceAsyncEPN10dmResource8ManifestEPKcjPKN17dmResourceArchive18LiveUpdateResourceEPFvPNS_25StoreResourceCallbackDataEERS9_
Vva:_UpsampleBgrLinePair
Jl:__ZN12dmGameObject9PrototypeD2Ev
tba:_opt_get_ip_multicast_if
JI:__ZN9dmPhysics11DebugDraw2DD0Ev
lS:__ZN17btGjkPairDetectorD0Ev
lia:_io_readline
kL:__ZNK23btGeneric6DofConstraint8getAngleEi
kia:_g_iofile
Kk:establishStackSpace
Ux:__ZN12dmGameSystem16CompSoundDestroyERKN12dmGameObject22ComponentDestroyParamsE
_Ba:__ZN5dmGuiL14LuaGetFlipbookEP9lua_State
oc:_emscripten_glBindBufferRange
A3:__ZN8dmScript15SetContextValueEPNS_7ContextE
fw:__ZN12dmGameSystemL18RenderListDispatchERKN8dmRender24RenderListDispatchParamsE
tqa:__ZN7dmMutex4LockEPNS_5MutexE
sMa:_x509_get_ns_cert_type
fKa:_mbedtls_ssl_get_max_frag_len
mm:__ZN12dmGameObjectL9MoveAllUpEPNS_10CollectionEPNS_8InstanceE
bU:__ZN33btConvexConcaveCollisionAlgorithm22getAllContactManifoldsER20btAlignedObjectArrayIP20btPersistentManifoldE
H5:__ZN8dmScript12ClearModulesEPNS_7ContextE
hwa:_VP8YUVInit
lWa:_htons
Qra:__ZN5dmSys12LoadResourceEPKcPvjPj
s:tempInt
tfa:_luaL_checklstring
t2a:_emscripten_glGenRenderbuffers__wrapper
U2:__ZN8dmScript7ContextD2Ev
nCa:__ZN5dmGuiL13LuaGetYAnchorEP9lua_State
tAa:__ZN5dmGui19SetNodePieFillAngleEPNS_5SceneEjf
cP:__ZN16btEmptyAlgorithm16processCollisionEP17btCollisionObjectS1_RK16btDispatcherInfoP16btManifoldResult
DI:__ZN9dmPhysics15RayCastResponseC2Ev
vb:___syscall196
ub:___syscall195
LH:__ZN9dmPhysics23GetJointReactionForce2DEPNS_7World2DEPvRN10Vectormath3Aos7Vector3Ef
L3a:_emscripten_glGetShaderiv__wrapper
XA:__ZN12dmGameSystem16ResModelRecreateERKN10dmResource22ResourceRecreateParamsE
Qba:_lua_typename
Gda:_luaC_separateudata
lDa:__ZN5dmGuiL20CloneNodeListToTableEP9lua_StatePNS_5SceneEtj
ey:__ZN12dmGameSystemL27CompSpineModelEventCallbackEN5dmRig12RigEventTypeEPvS2_S2_
Zoa:__ZN12dmHttpClientL9DoRequestEPNS_6ClientEPKcS3_
qk:FUNCTION_TABLE_viififfi
L:Math_ceil
eNa:_mbedtls_asn1_get_bool
ga:invoke_iifif
Cta:_ExportAlpha
L0a:_emscripten_glGetUniformBlockIndex__wrapper
kIa:_rsa_check_context
WHa:_ecdsa_free_wrap
j1a:_emscripten_glFrustum__wrapper
GG:__ZN10dmGraphics16SetPolygonOffsetEPNS_7ContextEff
WA:__ZN12dmGameSystem15ResModelDestroyERKN10dmResource21ResourceDestroyParamsE
lFa:__ZN7dmSound16NewSoundInstanceEPNS_9SoundDataEPPNS_13SoundInstanceE
YM:__ZZN28btHashedOverlappingPairCache19cleanProxyFromPairsEP17btBroadphaseProxyP12btDispatcherEN17CleanPairCallbackD0Ev
pz:__ZN12dmGameSystem21CompTileGridOnMessageERKN12dmGameObject24ComponentOnMessageParamsE
dma:__ZN10dmParticle22GetMaxVertexBufferSizeEPNS_7ContextENS_20ParticleVertexFormatE
hb:___gxx_personality_v0
MH:__ZN9dmPhysics24GetJointReactionTorque2DEPNS_7World2DEPvRff
Ifa:_luaL_gsub
Bea:_lua_newstate
dc:_dmSysGetUserPreferredLanguage
VNa:_mbedtls_mpi_read_binary_le
Zaa:_io_strerror
hya:__ZN5dmGui9AddLayoutEPNS_5SceneEPKc
gz:__ZN12dmGameSystemL6ReHashEPNS_17TileGridComponentE
mx:__ZN12dmGameSystemL28CompModelGetConstantCallbackEPvyPPN8dmRender8ConstantE
yU:__ZN31btConvexPlaneCollisionAlgorithm22getAllContactManifoldsER20btAlignedObjectArrayIP20btPersistentManifoldE
lP:__ZN16btManifoldResultD0Ev
qG:__ZN10dmGraphics16GetTextureHeightEPNS_7TextureE
eLa:_ssl_parse_certificate_chain
zS:__ZNK20btPersistentManifold13getCacheEntryERK15btManifoldPoint
Mua:_TM4
W5:__ZN8dmScriptL9URL_indexEP9lua_State
qia:_f_setvbuf
GP:__ZN34btSphereTriangleCollisionAlgorithm21calculateTimeOfImpactEP17btCollisionObjectS1_RK16btDispatcherInfoP16btManifoldResult
k$:__ZN11b2GearJointC2EPK14b2GearJointDef
Nla:__ZN10dmParticle21GetEmitterVertexCountEPNS_7ContextEjj
D8:_bit_lshift
ak:FUNCTION_TABLE_vdd
pba:_opt_set_linger
Wn:__ZN12dmGameObject22RegisterComponentTypesEPN10dmResource16SResourceFactoryEPNS_8RegisterEPN8dmScript7ContextE
Pl:__ZN12dmGameObject11PropertyVarC2EN10Vectormath3Aos7Vector4E
CQa:_mbedtls_ecp_curve_info_from_tls_id
Zca:_symbexec
sHa:_mbedtls_pk_verify_ext
iea:_test_then_block
IL:__ZN20btAxisSweep3InternalItE12removeHandleEtP12btDispatcher
D9:_meth_getfd_7479
Hi:_glfwSetWindowSizeCallback
gB:__ZN12dmGameSystem26ResRenderPrototypeRecreateERKN10dmResource22ResourceRecreateParamsE
T1a:_emscripten_glStencilMask__wrapper
pK:__ZN23btDiscreteDynamicsWorld15removeCharacterEP17btActionInterface
us:__ZN10dmResource12RegisterTypeEPNS_16SResourceFactoryEPKcPvPFNS_6ResultERKNS_21ResourcePreloadParamsEEPFS5_RKNS_20ResourceCreateParamsEEPFS5_RKNS_24ResourcePostCreateParamsEEPFS5_RKNS_21ResourceDestroyParamsEEPFS5_RKNS_22ResourceRecreateParamsEE
wZ:__ZN12b2MouseJointC2EPK15b2MouseJointDef
KLa:_mbedtls_ssl_set_bio
rla:__ZNSt3__26__sortIRN10dmParticle8SortPredEPNS1_8ParticleEEEvT0_S6_T_
FLa:_mbedtls_ssl_conf_endpoint
t4:__ZN8dmScript14SetStreamValueIaEEvPvid
N7:__ZN8dmScriptL16Vector4_tostringEP9lua_State
O6:__ZN8dmScript15InitializeTimerEPNS_7ContextE
P:Math_clz32
bUa:_ssl_write_renegotiation_ext
S_:__ZN15b2DistanceJointC2EPK18b2DistanceJointDef
Ula:__ZN10dmParticle23GetInstanceEmitterCountEPNS_7ContextEj
RT:__ZN28btCompoundCollisionAlgorithm16processCollisionEP17btCollisionObjectS1_RK16btDispatcherInfoP16btManifoldResult
Xm:__ZN12dmGameObject16UpdateTransformsEPNS_10CollectionE
Zba:_lua_tointeger
Pv:__ZN12dmGameSystem27FetchTextureSetAnimCallbackEPvyPN5dmGui18TextureSetAnimDescE
BW:__ZN16b2PrismaticJoint16SetMaxMotorForceEf
tO:__ZZN16btCollisionWorld17objectQuerySingleEPK13btConvexShapeRK11btTransformS5_P17btCollisionObjectPK16btCollisionShapeS5_RNS_20ConvexResultCallbackEfEN32BridgeTriangleConvexcastCallbackD0Ev
gza:__ZN5dmGui17SetNodeResetPointEPNS_5SceneEj
aLa:_mbedtls_ssl_ciphersuite_uses_srv_cert
afa:_luaV_tonumber
Ika:__ZN5dmHID5FinalEPNS_7ContextE
_i:_nanosleep
vS:__ZZN33btMinkowskiPenetrationDepthSolver12calcPenDepthER22btVoronoiSimplexSolverPK13btConvexShapeS4_RK11btTransformS7_R9btVector3S9_S9_P12btIDebugDrawP12btStackAllocEN20btIntermediateResult20setShapeIdentifiersBEii
CG:__ZN10dmGraphics14SetStencilMaskEPNS_7ContextEj
tJ:__ZN35btSequentialImpulseConstraintSolverD0Ev
f3a:_emscripten_glVertexAttribI4ubv__wrapper
tMa:_x509_get_certificate_policies
p3:__ZN8dmScript15IsInstanceValidEP9lua_State
f5a:_emscripten_glBindBufferRange__wrapper
gg:_emscripten_glVertexAttribI1ui
Dha:_luaopen_debug
Hia:_math_frexp
di:_glfwAccelerometerEnable
opa:__ZL15load_jpeg_imageP10stbi__jpegPiS1_S1_i
iC:__ZN12dmGameSystem31CollectionFactoryComp_GetStatusEP9lua_State
hCa:__ZN5dmGuiL11LuaSetLayerEP9lua_State
kV:__ZNK11b2EdgeShape11ComputeAABBEP6b2AABBRK11b2Transformi
mya:__ZN5dmGui17SetNodeLayoutDescEPNS_5SceneEjPKvtt
EWa:___uflow
sea:_primaryexp
gv:__ZN12dmGameSystem14SetJointParamsEPvS0_yRKN9dmPhysics18ConnectJointParamsE
$Fa:_imdct_step3_iter0_loop
cEa:__ZN7dmCrashL16Crash_GetModulesEP9lua_State
Gr:__ZN5dmDDF12OutputStreamC2EPFbPvPKvjES1_
Qma:__GLOBAL__sub_I_rig_ddf_cpp
fu:__ZN12dmGameSystem32CompCollectionFactoryAddToUpdateERKN12dmGameObject26ComponentAddToUpdateParamsE
k3a:_emscripten_glTexParameterf__wrapper
kEa:__ZN7dmCrash16SetCrashFilenameEPKc
nza:__ZN5dmGui19SetNodeTextTrackingEPNS_5SceneEjf
N0a:_emscripten_glGetFragDataLocation__wrapper
UH:__ZN9dmPhysics14SetDrawDebug3DEPNS_7World3DEb
m2a:_emscripten_glGetFloatv__wrapper
Nna:__Z9dmStrlCatPcPKcm
St:__ZN12dmGameSystem15OnWindowResizedEii
Oaa:_inet_global_gethostname
ika:__ZN11dmExtension13DispatchEventEPNS_6ParamsEPKNS_5EventE
ta:invoke_vdd
Hj:FUNCTION_TABLE_fiii
ZM:__ZZN28btHashedOverlappingPairCache19cleanProxyFromPairsEP17btBroadphaseProxyP12btDispatcherEN17CleanPairCallback14processOverlapER16btBroadphasePair
rba:_opt_set_ip_multicast_ttl
Ww:__ZN12dmGameSystemL18OnResourceReloadedEPNS_10ModelWorldEPNS_14ModelComponentEi
xqa:__ZN6dmPath6ConcatEPKcS1_Pcj
Xla:__ZN10dmParticle17GetTileSourcePathEPNS_9PrototypeEj
RMa:_x509_crt_check_cn
npa:__ZL24stbi__decode_jpeg_headerP10stbi__jpegi
xea:_recfield
aM:__ZN16btDbvtBroadphaseD2Ev
Gwa:_VP8LColorCacheCopy
ima:__ZN5dmRig13DeleteContextEPNS_10RigContextE
GY:__ZN9b2Contact6CreateEP9b2FixtureiS1_iP16b2BlockAllocator
l9:_meth_setoption
z1a:_emscripten_glDeleteProgram__wrapper
bu:__ZN12dmGameSystem29CompCollectionFactoryNewWorldERKN12dmGameObject23ComponentNewWorldParamsE
Tsa:__ZN19dmConditionVariable3NewEv
KIa:_mbedtls_rsa_pkcs1_sign
rOa:_get_pkcs_padding
LLa:_mbedtls_ssl_set_hostname
Jy:__ZN12dmGameSystemL13PlayAnimationEPNS_15SpriteComponentEyff
i7:__ZN8dmScriptL16Matrix4_FromQuatEP9lua_State
vZa:_fgetc
tpa:__ZL13stbi__do_zlibP10stbi__zbufPciii
qv:__ZN12dmGameSystem22CompEmitterDeleteWorldERKN12dmGameObject26ComponentDeleteWorldParamsE
Poa:__GLOBAL__sub_I_http_client_cpp
iWa:_fgets
E5:__ZN8dmScript9AddModuleEPNS_7ContextEPN8dmLuaDDF9LuaSourceEPKcPvy
pia:_f_seek
EY:__ZN7b2Timer5ResetEv
QEa:__ZN12dmDeviceNull17DeviceNullRestartEPv
Fz:__ZN12dmGameSystemL16AcquireResourcesEPN10dmResource16SResourceFactoryEPNS_25CollectionFactoryResourceE
vBa:__ZN5dmGui16LuaPlaySpineAnimEP9lua_State
Yva:_UpsampleRgba4444LinePair
U1:__ZN8dmRender27RenderScript_GetWindowWidthEP9lua_State
Ca:invoke_vifff
md:_emscripten_glDisableVertexAttribArray
GN:__ZN16btCollisionWorld11updateAabbsEv
fo:__ZN12dmGameObject30CreatePropertyContainerBuilderERKNS_27PropertyContainerParametersE
$Ca:__ZN5dmGuiL26LuaSetFlipbookPlaybackRateEP9lua_State
fva:_DC8uvNoLeft
LC:__ZN12dmGameSystem18LuaModelComp_GetGOEP9lua_State
RPa:_dhm_read_bignum
ad:_emscripten_glDeleteObjectARB
iFa:__ZN7dmSound12SetSoundDataEPNS_9SoundDataEPKvj
Wya:__ZN5dmGui10ClearNodesEPNS_5SceneE
_ja:_ll_loadlib
sOa:_add_one_and_zeros_padding
Oq:__ZN5dmDDFL20DDFCountSaveFunctionEPvPKvj
hBa:__ZN5dmGui11LuaSetScaleEP9lua_State
Q_:__ZN15b2DistanceJoint24SolveVelocityConstraintsERK12b2SolverData
Oa:invoke_viiii
cX:__ZN11b2RopeJoint24SolveVelocityConstraintsERK12b2SolverData
Kva:_MapARGB
n1:__ZN8dmRender16SetNamedConstantEPNS_19NamedConstantBufferEPKcN10Vectormath3Aos7Vector4E
FBa:__ZN5dmGui23LuaSetSpinePlaybackRateEP9lua_State
RY:__ZN23b2EdgeAndPolygonContactD0Ev
IN:__ZN16btCollisionWorld15debugDrawObjectERK11btTransformPK16btCollisionShapeRK9btVector3
xSa:_sha1_finish_wrap
dVa:_mbedtls_chachapoly_init
wi:_glfwOpenWindow
ct:__ZN17dmResourceArchive9FindEntryEPNS_21ArchiveIndexContainerEPKhPNS_9EntryDataE
V6:__ZN8dmScriptL10Vector_newEP9lua_State
Gp:__ZN12dmGameObject13ResLuaDestroyERKN10dmResource21ResourceDestroyParamsE
Xsa:__ZN16dmConnectionPool3NewEPKNS_6ParamsEPPNS_14ConnectionPoolE
Fj:FUNCTION_TABLE_fif
ul:__ZL25JsToDef_SendStringMessagePKcS0_
xta:_CustomPut
$ea:_luaU_header
Jga:_luaX_newstring
gra:__ZN8dmSocket8ShutdownEiNS_12ShutdownTypeE
UX:__ZN7b2World11CreateJointEPK10b2JointDef
Za:invoke_viiiiiiiiiii
FD:__ZN12dmGameSystemL23Sound_IsPhoneCallActiveEP9lua_State
pya:__ZN11dmHashTableIyN5dmGui14DynamicTextureEE5EraseEy
xLa:_mbedtls_ssl_init
y1:__ZN8dmRender32RenderScript_SetRenderTargetSizeEP9lua_State
W3a:_emscripten_glBindBufferBase__wrapper
tra:__ZN8dmSocket17AddressToIPStringENS_7AddressE
Kz:__ZN12dmGameSystem26ResCollectionProxyRecreateERKN10dmResource22ResourceRecreateParamsE
Naa:_inet_global_getnameinfo
oU:__ZN23btConvexConvexAlgorithm16processCollisionEP17btCollisionObjectS1_RK16btDispatcherInfoP16btManifoldResult
BUa:_x509_check_time
Jba:_lua_gettop
G$:__ZN8dmRender10SetFontMapEPNS_7FontMapERNS_13FontMapParamsE
GYa:___fseeko
ek:FUNCTION_TABLE_vffff
Ys:__ZN17dmResourceArchive11LoadArchiveEPKcS1_S1_PPNS_21ArchiveIndexContainerE
cK:__ZN23btDiscreteDynamicsWorld23synchronizeMotionStatesEv
E3:__ZN8dmScript26SetScriptWorldContextValueEPNS_11ScriptWorldE
cJa:_mbedtls_sha256_clone
eVa:_mbedtls_chachapoly_free
eya:__ZN5dmGui10ClearFontsEPNS_5SceneE
Qh:_glReadPixels
iM:__ZN16btDbvtBroadphase25calculateOverlappingPairsEP12btDispatcher
Jc:_emscripten_glClearBufferuiv
v6:__ZN8dmScript9PushTableEP9lua_StatePKcj
mia:_f_flush
Hla:__ZN10dmParticle8SetScaleEPNS_7ContextEjf
XNa:_mpi_bigendian_to_host
cw:__ZN12dmGameSystemL10NewTextureEPN5dmGui5SceneEjjN7dmImage4TypeEPKvPv
Ih:_glGetProgramiv
n2:__ZN8dmRender15NewRenderScriptEPNS_13RenderContextEPN8dmLuaDDF9LuaSourceE
T$:__ZN8dmRender22GetFontMapResourceSizeEPNS_7FontMapE
HP:__ZN34btSphereTriangleCollisionAlgorithm22getAllContactManifoldsER20btAlignedObjectArrayIP20btPersistentManifoldE
Lb:__exit
FDa:__ZN7dmCrash13IsInitializedEv
sja:_sort_comp
oo:__ZN12dmGameObjectL9PushEntryEPNS_24PropertyContainerBuilderEPNS_17PropertyContainerEj
L$a:dynCall_vifff
jy:__ZN12dmObjectPoolIPN12dmGameSystem19SpineModelComponentEE5AllocEv
R3a:_emscripten_glStencilFunc__wrapper
hJ:__ZN12btIDebugDraw7drawBoxERK9btVector3S2_RK11btTransformS2_
or:__ZN5dmDDF7Message16ReadMessageFieldEPNS_11LoadContextENS_8WireTypeEPKNS_15FieldDescriptorEPNS_11InputBufferE
ePa:_ccm_ctx_free
iU:__ZN33btConvexConcaveCollisionAlgorithmC2ERK36btCollisionAlgorithmConstructionInfoP17btCollisionObjectS4_b
KUa:_camellia_feistel
Jx:__ZN12dmGameSystem19GetResourcePropertyEPN10dmResource16SResourceFactoryEPvRN12dmGameObject12PropertyDescE
$I:__ZN9dmPhysics11DebugDraw3D10draw3dTextERK9btVector3PKc
FAa:__ZN5dmGui20PlayNodeFlipbookAnimEPNS_5SceneEjPKcffPFvS1_jbPvS4_ES4_S4_
Ir:__ZN5dmDDF12OutputStream8WriteTagEjNS_8WireTypeE
dU:__ZZN33btConvexConcaveCollisionAlgorithm21calculateTimeOfImpactEP17btCollisionObjectS1_RK16btDispatcherInfoP16btManifoldResultEN31LocalTriangleSphereCastCallback15processTriangleEP9btVector3ii
k5:__ZN8dmScriptL14Script_HashMD5EP9lua_State
mq:__ZN12dmGameObject14CompScriptInitERKNS_19ComponentInitParamsE
KM:__ZN28btHashedOverlappingPairCache37removeOverlappingPairsContainingProxyEP17btBroadphaseProxyP12btDispatcher
cY:__ZN15b2ContactFilterD2Ev
Dxa:__ZN5dmGui18SetDisplayProfilesEPNS_7ContextEPv
WFa:_get_bits
o7:__ZN8dmScriptL3DotEP9lua_State
BCa:__ZN5dmGuiL14LuaSetSizeModeEP9lua_State
fca:_lua_pushnil
poa:__ZN11dmHttpCache4OpenEPNS_9NewParamsEPPNS_5CacheE
gRa:_ecp_randomize_jac
MV:__Z19b2ClipSegmentToLineP12b2ClipVertexPKS_RK6b2Vec2fi
Eh:_glGetAttribLocation
fCa:__ZN5dmGuiL10LuaSetFontEP9lua_State
Tla:__ZN10dmParticle15GetEmitterCountEPNS_9PrototypeE
j2:__ZN8dmRenderL18RenderScriptGetURLEP9lua_State
Yja:_findfile
Wx:__ZN12dmGameSystem15CompSoundUpdateERKN12dmGameObject22ComponentsUpdateParamsERNS0_22ComponentsUpdateResultE
n3:__ZN8dmScript11GetInstanceEP9lua_State
aR:__ZN15btCompoundShape23removeChildShapeByIndexEi
ola:__ZN10dmParticle14ReloadInstanceEPNS_7ContextEjb
ES:__ZN25btTriangleRaycastCallback15processTriangleEP9btVector3ii
M:Math_imul
jva:_TransformOne
$Ba:__ZN5dmGuiL15LuaPlayFlipbookEP9lua_State
Usa:__ZN19dmConditionVariable6DeleteEPNS_17ConditionVariableE
g9:_meth_setstats
HEa:__ZN12dmLiveUpdate15HexDigestLengthEN15dmLiveUpdateDDF13HashAlgorithmE
gIa:_mbedtls_platform_zeroize
S_a:_bitshift64Lshr
PWa:_out
Uva:_UpsampleRgbaLinePair
$ra:__ZN5dmURI5ParseEPKcPNS_5PartsE
vL:__ZN20btAxisSweep3InternalItE25calculateOverlappingPairsEP12btDispatcher
Ona:__Z12dmStrCaseCmpPKcS0_
Ina:__ZN5dmDNS13DeleteChannelEPNS_7ChannelE
zH:__ZN9dmPhysics19GetAngularDamping2DEPv
a4a:_emscripten_glBindFragDataLocation__wrapper
G2:__GLOBAL__sub_I_render_ddf_cpp
n4:__ZN8dmScript14GetStreamValueItEEdPvi
pE:__ZN12dmGameSystem20ScriptWindowFinalizeERKNS_16ScriptLibContextE
Mfa:_luaL_pushresult
UF:__ZN10dmGraphics13EnableProgramEPNS_7ContextEm
D1a:_emscripten_glDeleteObjectARB__wrapper
bx:__ZN12dmGameSystem15CompModelCreateERKN12dmGameObject21ComponentCreateParamsE
wB:__ZN12dmGameSystem15ResSoundDestroyERKN10dmResource21ResourceDestroyParamsE
qE:__ZN12dmGameSystem25ScriptWindowOnWindowFocusEb
LUa:_mbedtls_camellia_setkey_dec
pka:__ZN5dmHID24IsAccelerometerConnectedEPNS_7ContextE
zBa:__ZN5dmGui16LuaGetSpineSceneEP9lua_State
PJ:__ZN23btDiscreteDynamicsWorldD2Ev
jL:__ZNK21btConeTwistConstraint16GetPointForAngleEff
Gaa:_protected_
sD:__ZN12dmLiveUpdate27Resource_GetCurrentManifestEP9lua_State
NDa:__ZN7dmCrash12GetExtraDataEi
Nw:__ZN12dmGameSystem15CompLightCreateERKN12dmGameObject21ComponentCreateParamsE
yza:__ZN5dmGui13SetNodeParentEPNS_5SceneEjjb
AXa:_connect
oT:__ZN6btDbvt5clearEv
XC:__GLOBAL__sub_I_script_physics_cpp
w$a:dynCall_iiiiiiii
OTa:_ssl_check_server_ecdh_params
qLa:_ssl_update_checksum_sha256
_n:__ZN12dmGameObject13NewPropertiesERKNS_19NewPropertiesParamsE
gAa:__ZN5dmGui19SetNodeClippingModeEPNS_5SceneEjNS_12ClippingModeE
T6:__ZN8dmScript9ToMatrix4EP9lua_Statei
Ur:__ZN10dmResource26SetDefaultNewFactoryParamsEPNS_16NewFactoryParamsE
Un:__ZN7dmVMath11QuatToEulerEffff
q2:__ZN8dmRender18ReloadRenderScriptEPNS_13RenderContextEPNS_12RenderScriptEPN8dmLuaDDF9LuaSourceE
OR:__ZN34btPolyhedralConvexAabbCachingShape15setLocalScalingERK9btVector3
TW:__ZN15b2RevoluteJoint11EnableLimitEb
EOa:_mbedtls_cipher_finish
Kba:_lua_settop
$_a:_pthread_mutex_lock
ms:__ZN11dmHashTableIyN10dmResource19SResourceDescriptorEE3PutEyRKS1_
EAa:__ZN5dmGui20PlayNodeFlipbookAnimEPNS_5SceneEjyffPFvS1_jbPvS2_ES2_S2_
No:__ZN12dmGameObject23Script_GetWorldRotationEP9lua_State
PD:__ZN12dmGameSystem15SpineComp_GetGOEP9lua_State
Roa:__ZN12dmHttpClient16SetDefaultParamsEPNS_9NewParamsE
AZ:__ZNK13b2PulleyJoint17GetReactionTorqueEf
soa:__ZN11dmHttpCacheL15ContentFilePathEPNS_5CacheEyPci
MTa:_mbedtls_ssl_ciphersuite_uses_server_signature
LI:__ZN9dmPhysics11DebugDraw2D16DrawSolidPolygonEPK6b2Vec2iRK7b2Color
DU:__ZN15btGjkConvexCastC2EPK13btConvexShapeS2_P22btVoronoiSimplexSolver
Ypa:__ZN8dmMemory13AlignedMallocEPPvjj
fFa:__ZN7dmSound8FinalizeEv
Zr:__ZN10dmResource16LoadArchiveIndexEPKcPNS_16SResourceFactoryE
dB:__ZN12dmGameSystem16AcquireResourcesEPN10dmResource16SResourceFactoryEPKvjPN8dmRender13RenderContextEPNS_21RenderScriptPrototypeEPKc
Qr:__GLOBAL__sub_I_ddf_math_cpp
J0a:_emscripten_glGetUniformLocation__wrapper
aRa:_ecp_mul_comb_core
Pfa:_luaL_unref
jMa:_mbedtls_x509_crt_free
ewa:_WebPYuv444ToRgba4444C
IO:__ZN31btDefaultCollisionConfigurationC2ERK34btDefaultCollisionConstructionInfo
_C:__ZN12dmGameSystem21ScriptPhysicsRegisterERKNS_16ScriptLibContextE
ya:invoke_vfi
wa:invoke_vff
oB:__ZN12dmGameSystem19ResRigSceneRecreateERKN10dmResource22ResourceRecreateParamsE
Bsa:_longest_match
_ra:__ZN6dmTime7GetTimeEv
$A:__ZN12dmGameSystemL25ReleasePrototypeResourcesEPN10dmResource16SResourceFactoryEPN10dmParticle9PrototypeE
xs:__ZN10dmResource3GetEPNS_16SResourceFactoryEPKcPPv
zXa:_freeaddrinfo
yI:__ZN9dmPhysics16NewContextParamsC2Ev
Vh:_glStencilOp
je:_emscripten_glGetShaderSource
zJ:__ZN35btSequentialImpulseConstraintSolver29solveGroupCacheFriendlyFinishEPP17btCollisionObjectiPP20btPersistentManifoldiPP17btTypedConstraintiRK19btContactSolverInfoP12btIDebugDrawP12btStackAlloc
BSa:_sha1_process_wrap
mca:_lua_pushcclosure
VGa:_mbedtls_ctr_drbg_random_with_add
FNa:_mbedtls_mpi_sub_int
jka:__ZN5dmHID16NewContextParamsC2Ev
Pia:_math_rad
JF:__ZN10dmGraphics16NewVertexProgramEPNS_7ContextEPNS_10ShaderDesc6ShaderE
gw:__ZN12dmGameSystem16CompGuiOnMessageERKN12dmGameObject24ComponentOnMessageParamsE
sga:_luaK_exp2val
aAa:__ZN5dmGui24GetNodeSpinePlaybackRateEPNS_5SceneEj
Hma:__ZN5dmRig16SetEventCallbackEPNS_11RigInstanceEPFvNS_12RigEventTypeEPvS3_S3_ES3_S3_
rea:_body
Dka:__ZN5dmHID13GetGamepadHatEPNS_13GamepadPacketEjRh
A5:__ZN8dmScript11Json_DecodeEP9lua_State
Tr:__ZN10dmResource25CheckSuppliedResourcePathEPKc
Jda:_luaC_freeall
Gga:_luaX_token2str
ec:_dmSysOpenURL
aI:__ZN9dmPhysics13NewBoxShape3DEPNS_9Context3DERKN10Vectormath3Aos7Vector3E
Csa:_deflate
YHa:_pk_get_pk_alg
Vw:__ZN12dmGameSystemL24ResourceReloadedCallbackERKN10dmResource22ResourceReloadedParamsE
mk:FUNCTION_TABLE_vii
F$a:dynCall_vff
yfa:_luaL_checkany
uM:__ZN18btDbvtTreeCollider7ProcessEPK10btDbvtNode
R3:__ZN8dmScript5PCallEP9lua_Stateii
K7:__ZN8dmScriptL8Quat_mulEP9lua_State
mb:___syscall10
hma:__ZN12dmObjectPoolIPN5dmRig11RigInstanceEE11SetCapacityEj
B_:__ZN15b2ContactSolverD2Ev
sV:__ZNK11b2GridShape7RayCastEP15b2RayCastOutputRK14b2RayCastInputRK11b2Transformi
Ew:__ZN12dmGameSystem21CompLabelGetComponentERKN12dmGameObject18ComponentGetParamsE
ev:__ZN12dmGameSystem14GetJointParamsEPvS0_yRN9dmPhysics9JointTypeERNS1_18ConnectJointParamsE
Fi:_glfwSetWindowFocusCallback
II:__ZN6b2DrawD2Ev
mFa:__ZN7dmSound19DeleteSoundInstanceEPNS_13SoundInstanceE
_b:_dmGetDeviceSampleRate
zQa:_mbedtls_ecdsa_init
Di:_glfwSetTouchCallback
V2a:_emscripten_glVertexAttribI1i__wrapper
Z:invoke_fiifii
Lfa:_luaL_addlstring
xA:__ZN12dmGameSystem20ResRecreateSceneDescERKN10dmResource22ResourceRecreateParamsE
BE:__GLOBAL__sub_I_sound_ddf_cpp
Ana:__ZN7dmCrypt7HashMd5EPKhjPh
WGa:_mbedtls_ctr_drbg_random
_Q:__ZN15btCompoundShape16removeChildShapeEP16btCollisionShape
wP:__ZN20btAlignedObjectArrayIP20btPersistentManifoldE17quickSortInternalI33btPersistentManifoldSortPredicateEEvT_ii
Oxa:__ZN11dmHashTableIyPN10dmParticle9PrototypeEE3PutEyRKS2_
Hea:_luaS_newudata
gwa:_WebPInitYUV444Converters
Ax:__ZN12dmGameSystem18RenderLineCallbackEPvRKN10Vectormath3Aos6Point3ES5_RKNS2_7Vector4E
hd:_emscripten_glDepthMask
qd:_emscripten_glDrawBuffers
B3:__ZN8dmScript15GetContextValueEPNS_7ContextE
oS:__ZN17btGjkPairDetectorC2EPK13btConvexShapeS2_P22btVoronoiSimplexSolverP30btConvexPenetrationDepthSolver
txa:__ZN5dmGui11IsNodeValidEPNS_5SceneEj
A_:__ZN15b2ContactSolverC2EP18b2ContactSolverDef
YD:__ZN12dmGameSystem19SpriteComp_SetHFlipEP9lua_State
eU:__ZN24btConvexTriangleCallback22setTimeStepAndCountersEfRK16btDispatcherInfoP16btManifoldResult
E1a:_emscripten_glEnableClientState__wrapper
UZa:__Znam
d:HEAPU8
$Za:__ZN10__cxxabiv117__class_type_infoD0Ev
IF:__ZN10dmGraphics4DrawEPNS_7ContextEjjj
az:__ZN12dmGameSystem15GetTileGridTileEPKNS_17TileGridComponentEjii
m4:__ZN8dmScript14GetStreamValueIjEEdPvi
Fo:__ZN12dmGameObject15Script_GetScaleEP9lua_State
J_:__ZNK15b2DistanceJoint10GetAnchorAEv
jd:_emscripten_glDepthRangef
nE:__ZN12dmGameSystemL10SetDimModeEP9lua_State
Iza:__ZN5dmGui20SetNodeSpineSkinSlotEPNS_5SceneEjyy
mxa:_WebPDequantizeLevels
O2a:_emscripten_glStencilMaskSeparate__wrapper
FN:__ZN16btCollisionWorldD0Ev
hc:_emscripten_glActiveTexture
LX:__ZN9b2Fixture17SynchronizeSingleEP12b2BroadPhaseiRK11b2TransformS4_
FQa:_mbedtls_ecp_group_init
$ia:_os_execute
Ho:__ZN12dmGameObject22Script_GetScaleUniformEP9lua_State
IS:__ZNK15btTriangleShape7getAabbERK11btTransformR9btVector3S4_
g_:__Z25b2CollidePolygonAndCircleP10b2ManifoldPK14b2PolygonShapeRK11b2TransformPK13b2CircleShapeS6_
Zn:__ZN12dmGameObject19NewPropertiesParamsC2Ev
Wc:_emscripten_glCopyTexSubImage2D
Oj:FUNCTION_TABLE_ii
tV:__ZNK11b2GridShape11ComputeAABBEP6b2AABBRK11b2Transformi
cUa:_ssl_write_signature_algorithms_ext
RH:__ZN9dmPhysics11GetSocket3DEPNS_9Context3DE
L2:__ZN8dmRender7CommandC2ENS_11CommandTypeEmmmm
j4a:b44
q_a:__ZN10__cxxabiv112_GLOBAL__N_110construct_Ev
TOa:_des3_set3key_dec_wrap
$m:__ZN12dmGameObject16GetWorldRotationEPNS_8InstanceE
l4a:b46
ooa:__ZN11dmHttpCache16SetDefaultParamsEPNS_9NewParamsE
by:__ZN12dmGameSystemL13CreateGOBonesEPNS_15SpineModelWorldEPNS_19SpineModelComponentE
fr:__ZN5dmDDF11InputBuffer9SubBufferEjPS0_
z3:__ZN8dmScript11GetUserDataEP9lua_StatePmj
uga:_luaK_storevar
kJa:_mbedtls_sha512_clone
me:_emscripten_glGetStringi
ro:__ZN12dmGameObject30CreatePropertyContainerFromDDFEPKN15dmPropertiesDDF20PropertyDeclarationsE
e1:__ZNSt3__215__inplace_mergeIRN8dmRender21RenderListEntrySorterEPjEEvT0_S5_S5_T_NS_15iterator_traitsIS5_E15difference_typeES9_PNS8_10value_typeEl
Boa:__ZN11dmHashTableIyN11dmHttpCache5EntryEE5EraseEy
uH:__ZN9dmPhysics19GetLinearVelocity2DEPNS_9Context2DEPv
iR:__ZN21btConvexInternalShape9setMarginEf
W6:__ZN8dmScriptL11Vector3_newEP9lua_State
LWa:_vsprintf
kF:__ZN10dmGraphics9GetHeightEPNS_7ContextE
Vt:__ZN12dmGameSystem21CompCameraDeleteWorldERKN12dmGameObject26ComponentDeleteWorldParamsE
L9:_meth_setoption_7493
uu:__ZN12dmGameSystemL23PreloadCompleteCallbackEPKN10dmResource31PreloaderCompleteCallbackParamsE_1651
Jaa:_inet_open
uQa:_mbedtls_ecdsa_write_signature
KPa:_mbedtls_des3_set3key_dec
pAa:__ZN5dmGui14SetNodeYAnchorEPNS_5SceneEjNS_7YAnchorE
qAa:__ZN5dmGui18SetNodeOuterBoundsEPNS_5SceneEjNS_9PieBoundsE
KQa:_mbedtls_ecp_copy
XV:__ZN6b2DrawC2Ev
D_:__ZN15b2ContactSolver9WarmStartEv
JPa:_des3_set3key
pf:_emscripten_glTexParameterfv
GEa:__ZN12dmLiveUpdate13AsyncFinalizeEv
QD:__ZN12dmGameSystem17SpineComp_SetSkinEP9lua_State
aF:__ZN10dmGraphics10SetTextureEPNS_7TextureERKNS_13TextureParamsE
eOa:_mbedtls_mpi_gcd
lt:__ZN10dmResourceL23PreloaderTryPruneParentEPNS_17ResourcePreloaderEPNS_14PreloadRequestE
GW:__ZN15b2RevoluteJoint4DumpEv
O1:__ZN8dmRender27RenderScript_SetStencilFuncEP9lua_State
BS:__ZN20btPersistentManifold16addManifoldPointERK15btManifoldPoint
LV:__ZN15b2WorldManifold10InitializeEPK10b2ManifoldRK11b2TransformfS5_f
A4:__ZN8dmScriptL9GetStreamEP9lua_State
zUa:_mbedtls_x509_time_is_past
AS:__ZNK20btPersistentManifold27getContactBreakingThresholdEv
cG:__ZN10dmGraphics10SetSamplerEPNS_7ContextEii
Vja:_loader_Croot
tda:_f_parser
Txa:__ZN5dmGui11DeleteSceneEPNS_5SceneE
$ma:__ZN8dmBuffer13GetStreamNameEjjPy
LO:__ZN31btConvexPlaneCollisionAlgorithm10CreateFunc24CreateCollisionAlgorithmER36btCollisionAlgorithmConstructionInfoP17btCollisionObjectS4_
ua:invoke_vdddddd
qg:_emscripten_glVertexAttribI4bv
pda:_resume
Ui:_llvm_log10_f64
aUa:_ssl_write_hostname_ext
df:_emscripten_glStencilFuncSeparate
j7:__ZN8dmScriptL17Matrix4_AxisAngleEP9lua_State
CWa:___intscan
LDa:__ZN7dmCrash7ReleaseEi
tf:_emscripten_glTexStorage3D
nSa:_mbedtls_md_get_type
Wt:__ZN12dmGameSystem16CompCameraCreateERKN12dmGameObject21ComponentCreateParamsE
B1a:_emscripten_glUseProgram__wrapper
cv:__ZN12dmGameSystem11CreateJointEPvS0_yRKN10Vectormath3Aos6Point3ES0_S5_N9dmPhysics9JointTypeERKNS6_18ConnectJointParamsE
g2a:_emscripten_glUniform4f__wrapper
x:tempRet0
zB:__ZN12dmGameSystem19ResSoundDataDestroyERKN10dmResource21ResourceDestroyParamsE
gG:__ZN10dmGraphics18DeleteRenderTargetEPNS_12RenderTargetE
Pa:invoke_viiiifffffif
Cv:__ZN12dmGameSystem20CompFactoryOnMessageERKN12dmGameObject24ComponentOnMessageParamsE
dqa:__ZN11dmHashTableIyN9dmMessage13MessageSocketEE3PutEyRKS1_
QAa:__ZN5dmGui12DeleteScriptEPNS_6ScriptE
QO:__ZN32btSphereSphereCollisionAlgorithm10CreateFuncD0Ev
_A:__ZN12dmGameSystem19ResParticleFXCreateERKN10dmResource20ResourceCreateParamsE
SSa:_sha384_clone_wrap
_F:__ZN10dmGraphics18GetUniformLocationEmPKc
DH:__ZN9dmPhysics9RayCast2DEPNS_7World2DERKNS_14RayCastRequestERNS_15RayCastResponseE
xX:__ZN12b2BroadPhase11UpdatePairsI16b2ContactManagerEEvPT_
$9:_socket_send
t_a:__ZSt11__terminatePFvvE
I2:__ZN8dmRender7CommandC2ENS_11CommandTypeEm
lwa:_YuvToRgbaRow
HDa:__ZN7dmCrash11SetFilePathEPKc
KBa:__ZN5dmGuiL13LuaNewPieNodeEP9lua_State
_U:__ZN13b2CircleShapeD0Ev
pY:__ZN13b2DynamicTree11CreateProxyERK6b2AABBPv
kba:_opt_get_ip6_unicast_hops
OK:__ZN11btRigidBody24checkCollideWithOverrideEP17btCollisionObject
cGa:_codebook_decode_start
Ag:_emscripten_glVertexPointer
Nl:__ZN12dmGameObject11PropertyVarC2Ey
Nh:_glLinkProgram
r_a:__ZN10__cxxabiv112_GLOBAL__N_19destruct_EPv
pI:__ZN9dmPhysics18SetLinearDamping3DEPvf
Pxa:__ZN11dmHashTableIyPvE3PutEyRKS0_
_Pa:_ecdh_compute_shared_restartable
_z:__ZN12dmGameSystem17ResFactoryPreloadERKN10dmResource21ResourcePreloadParamsE
Xna:_dmHashBuffer32
Ny:__ZN12dmGameSystem21CompSpriteAddToUpdateERKN12dmGameObject26ComponentAddToUpdateParamsE
TAa:__ZN5dmGui18GetContextTableRefEPNS_5SceneE
Y$a:dynCall_viiiifffffif
ama:__ZN10dmParticle17SetRenderConstantEPNS_7ContextEjyyN10Vectormath3Aos7Vector4E
ee:_emscripten_glGetProgramInfoLog
Xaa:_inet_trybind
hv:__ZN12dmGameSystem21GetJointReactionForceEPvS0_yRN10Vectormath3Aos7Vector3E
_W:__ZNK11b2RopeJoint17GetReactionTorqueEf
sk:FUNCTION_TABLE_viii
jj:_pthread_mutex_init
ok:FUNCTION_TABLE_viif
nk:FUNCTION_TABLE_viid
lp:__ZN12dmGameObjectL13ScriptIsValidEP9lua_State
_Ja:_mbedtls_ssl_write_version
MIa:_mbedtls_rsa_rsassa_pss_verify
uk:FUNCTION_TABLE_viiifii
Zc:_emscripten_glCullFace
ov:__ZN12dmGameSystem17SetCollisionFlipVEPvb
KQ:__ZNK16btCollisionShape27getContactBreakingThresholdEf
ipa:__ZN19dmHttpClientPrivate11ParseHeaderEPcPvbPFvS1_iiiPKcEPFvS1_S3_S3_EPFvS1_iE
KDa:__ZN7dmCrash12LoadPreviousEv
uSa:_md5_process_wrap
WH:__ZNK11btMatrix3x311getRotationER12btQuaternion
WX:__ZN7b2World8SolveTOIERK10b2TimeStep
iUa:_ssl_write_extended_ms_ext
QNa:_mbedtls_mpi_cmp_mpi
UZ:__ZNK12b2WheelJoint10GetAnchorBEv
_Ha:_pk_get_rsapubkey
cD:__ZN12dmGameSystemL26Physics_SetJointPropertiesEP9lua_State
b3:__ZN11dmHashTableImbE3PutEmRKb
mW:__ZN16b2PrismaticJointD0Ev
JSa:_sha224_process_wrap
cua:_ReadSymbol
Lda:_luaC_step
YMa:_mbedtls_aes_setkey_dec
GNa:_mbedtls_mpi_sub_mpi
yqa:__ZN15dmPoolAllocator3NewEj
D2:__ZN8dmRender28OnReloadRenderScriptInstanceEPNS_20RenderScriptInstanceE
K6:__ZN8dmScriptL10TimerDelayEP9lua_State
Fv:__ZN12dmGameSystem17CompFactoryUnloadEPN12dmGameObject16CollectionHandleEPNS_16FactoryComponentE
nQ:__ZNK10btBoxShape16getPlaneEquationER9btVector4i
G1:__ZN8dmRender24RenderScript_DrawDebug2dEP9lua_State
qB:__ZN12dmGameSystem17ResSkeletonCreateERKN10dmResource20ResourceCreateParamsE
Ac:_emscripten_glBlitFramebuffer
$ha:_io_lines
nl:__Z17InitializeJsToDefPN11dmExtension6ParamsE
D:Math_sin
gx:__ZN12dmGameSystem15CompModelUpdateERKN12dmGameObject22ComponentsUpdateParamsERNS0_22ComponentsUpdateResultE
D_a:___cxa_guard_release
fn:__ZN12dmGameObject6DeleteEPNS_16CollectionHandleEPNS_8InstanceEb
Yda:_luaM_toobig
qxa:__GLOBAL__sub_I_gui_cpp
$E:__ZN10dmGraphics17DoSetTextureAsyncEPv
am:__ZN12dmGameObject16DeleteCollectionEPNS_10CollectionE
pv:__ZN12dmGameSystem19CompEmitterNewWorldERKN12dmGameObject23ComponentNewWorldParamsE
pwa:_YuvToRgba4444Row
fL:__ZN11btRigidBody19integrateVelocitiesEf
oO:__ZZN16btCollisionWorld17objectQuerySingleEPK13btConvexShapeRK11btTransformS5_P17btCollisionObjectPK16btCollisionShapeS5_RNS_20ConvexResultCallbackEfEN14LocalInfoAdderD0Ev
WOa:_des3_set2key_enc_wrap
dHa:_mbedtls_md5_free
Ad:_emscripten_glFinish
V:abortOnCannotGrowMemory
Fq:__ZN5dmDDF15ResolvePointersEPKNS_10DescriptorEPv
j3:__ZN8dmScript11GetLuaStateEPNS_7ContextE
Sg:_glBindFramebuffer
fO:__ZN17DebugDrawcallbackD0Ev
dWa:___randname
RKa:_mbedtls_ssl_transform_free
Cx:__ZN12dmGameSystem23CompParticleFXOnMessageERKN12dmGameObject24ComponentOnMessageParamsE
JV:__ZN14b2PolygonShape8SetAsBoxEff
E6:__ZN8dmScript22TimerDeleteScriptWorldEPNS_11ScriptWorldE
FSa:_sha224_wrap
YYa:___pthread_self_295
o0:__ZN8dmRender18GetMaterialTagMaskEPNS_8MaterialE
fC:__ZN12dmGameSystem23ResVertexProgramDestroyERKN10dmResource21ResourceDestroyParamsE
Bia:_math_cosh
EZ:__ZN13b2PulleyJoint24SolveVelocityConstraintsERK12b2SolverData
Vca:_lua_getlocal
z3a:_emscripten_glGetVertexAttribfv__wrapper
g4a:_emscripten_glClearBufferiv__wrapper
$:invoke_fiiifii
bEa:__ZN7dmCrashL18Crash_GetBacktraceEP9lua_State
Kw:__ZN12dmGameSystemL28CompLabelSetConstantCallbackEPvyPjRKN12dmGameObject11PropertyVarE
uL:__ZN20btAxisSweep3InternalItE8aabbTestERK9btVector3S3_R24btBroadphaseAabbCallback
Kga:_luaX_setinput
$0a:_emscripten_glReleaseShaderCompiler__wrapper
_ia:_os_difftime
Cy:__ZN12dmGameSystem25CompSpineModelSetSkinSlotEPNS_19SpineModelComponentEyy
gpa:__ZN12dmHttpClient22ShutdownConnectionPoolEv
Lma:__ZN12dmObjectPoolIPN5dmRig11RigInstanceEE5AllocEv
sT:__ZN6btDbvt6insertERK12btDbvtAabbMmPv
Ab:___syscall39
zb:___syscall38
X_a:_testSetjmp
A1:__ZN8dmRender27RenderScript_DisableTextureEP9lua_State
Jwa:_VP8LBuildHuffmanTable
bMa:_mbedtls_ssl_md_alg_from_hash
CMa:_x509_crt_verify_name
qn:__ZN12dmGameObject7SetBoneEPNS_8InstanceEb
Fqa:__ZN9dmProfile10InitializeEjjj
Wb:_difftime
lf:_emscripten_glTexImage3D
pza:__ZN5dmGui14GetNodeTextureEPNS_5SceneEjPNS_15NodeTextureTypeE
wra:__ZN12dmStringPool3AddEPNS_4PoolEPKcjj
PE:__ZN10dmGraphics10NewContextERKNS_13ContextParamsE
Y2:__ZN8dmScriptL15Lua_Math_RandomEP9lua_State
oUa:_mbedtls_x509_get_rsassa_pss_params
T3a:_emscripten_glUniformBlockBinding__wrapper
Kda:_sweeplist
Fr:__ZN5dmDDF11LoadContext13GetArrayCountEjj
zG:__ZN10dmGraphics12SetColorMaskEPNS_7ContextEbbbb
tc:_emscripten_glBindTexture
cm:__ZN12dmGameObject16DetachCollectionEPNS_10CollectionE
v4:__ZN8dmScript14SetStreamValueIjEEvPvid
hxa:_VerticalFilter
qja:_sort
KSa:_sha256_starts_wrap
l_a:__ZN10__cxxabiv120__si_class_type_infoD0Ev
r6:__ZN8dmScript12DoCheckTableEP9lua_StateRKNS_11TableHeaderEPKcPcji
EQ:__ZNK14btCapsuleShape49batchedUnitVectorGetSupportingVertexWithoutMarginEPK9btVector3PS0_i
BC:__GLOBAL__sub_I_script_label_cpp
PQ:__ZN15btCompoundShapeD2Ev
wX:__ZN16b2ContactManager15FindNewContactsEv
T2:__ZN8dmScript13DeleteContextEPNS_7ContextE
nKa:_ssl_buffering_free_slot
v1:__ZN8dmRender28RenderScript_SetRenderTargetEP9lua_State
$n:__ZN12dmGameObject16DeletePropertiesEPNS_10PropertiesE
Cya:__ZN5dmGui9RunScriptEPNS_5SceneENS_14ScriptFunctionEiPv
Uea:_luaH_setstr
Kka:__ZN5dmHID20GetGamepadDeviceNameEPNS_7GamepadEPPKc
z_:__ZN15b2CircleContact7DestroyEP9b2ContactP16b2BlockAllocator
Uaa:_inet_trydisconnect
CKa:_mbedtls_ssl_dtls_replay_update
i2:__ZN8dmRenderL38RenderScriptGetInstanceContextTableRefEP9lua_State
u3:__ZN8dmScript11GetUserTypeEP9lua_Statei
Ll:__ZN12dmGameObject11PropertyVarC2Ev
X8:_meth_close
Yo:__ZN12dmGameObjectL13DeleteGOTableEP9lua_Stateb
aba:_opt_set_reuseaddr
GE:__GLOBAL__sub_I_gamesys_private_cpp
oxa:_glfwInit
Ml:__ZN12dmGameObject11PropertyVarC2Ef
$x:__ZN12dmGameSystemL24ResourceReloadedCallbackERKN10dmResource22ResourceReloadedParamsE_2431
G_a:___cxa_can_catch
sca:_lua_rawget
$e:_emscripten_glScissor
tIa:_mbedtls_rsa_private
PIa:_mbedtls_rsa_deduce_primes
ym:__ZNSt3__27__sort5IRN12dmGameObject21ComponentTypeSortPredEPtEEjT0_S5_S5_S5_S5_T_
Om:__ZN12dmGameObject9SetParentEPNS_8InstanceES1_
Cea:_f_luaopen
mS:__ZN17btGjkPairDetector16getClosestPointsERKN36btDiscreteCollisionDetectorInterface17ClosestPointInputERNS0_6ResultEP12btIDebugDrawb
sPa:_aes_crypt_cbc_wrap
wf:_emscripten_glTransformFeedbackVaryings
CCa:__ZN5dmGuiL12LuaMoveAboveEP9lua_State
C4a:_emscripten_glVertexPointer__wrapper
Jd:_emscripten_glGenTextures
HR:__ZNK13btConvexShape19getMarginNonVirtualEv
JYa:_fwrite
Lqa:__ZN9dmProfile7ReleaseEPNS_7ProfileE
a1a:_emscripten_glFinish__wrapper
AOa:_mbedtls_cipher_set_iv
bl:__ZN8dmEngineL9IsRunningEPv
Nia:_math_modf
NBa:__ZN5dmGuiL10LuaSetTextEP9lua_State
xq:__ZN5dmDDF16RegisterAllTypesEv
Yxa:__ZN5dmGui13GetNodeHandleEPNS_12InternalNodeE
_Ta:_mbedtls_ssl_safer_memcmp_12816
hZ:__ZN16b2PolygonContact7DestroyEP9b2ContactP16b2BlockAllocator
cx:__ZN12dmObjectPoolIPN12dmGameSystem14ModelComponentEE5AllocEv
MR:__ZN34btPolyhedralConvexAabbCachingShapeD0Ev
X$:__ZN11dmHashTableIyiE3PutEyRKi
dW:__Z7b2Alloci
mda:_luaD_poscall
Sha:_hookf
Nva:_WebPRescalerImportRowShrinkC
SI:__ZN9dmPhysics11DebugDraw3DD2Ev
nB:__ZN12dmGameSystem18ResRigSceneDestroyERKN10dmResource21ResourceDestroyParamsE
uA:__ZN12dmGameSystem19ResPreloadSceneDescERKN10dmResource21ResourcePreloadParamsE
l:STACK_MAX
IE:__ZN12dmGameSystem19GetMaterialConstantEPN8dmRender8MaterialEyRN12dmGameObject12PropertyDescEbPFbPvyPPNS0_8ConstantEES6_
Hc:_emscripten_glClearBufferfv
xv:__ZN12dmGameSystem17CompFactoryCreateERKN12dmGameObject21ComponentCreateParamsE
hYa:___pthread_self_431
lC:__ZN12dmGameSystem28CollectionFactoryComp_CreateEP9lua_State
op:__ZN12dmGameObjectL10LoadScriptEP9lua_StatePN8dmLuaDDF9LuaSourceEPNS_6ScriptE
Mv:__ZN12dmGameSystem22OnWindowResizeCallbackEPN5dmGui5SceneEjj
Waa:_inet_tryaccept
Gc:_emscripten_glClearBufferfi
V0:__ZN8dmRender26ApplyRenderObjectConstantsEPNS_13RenderContextEPNS_8MaterialEPKNS_12RenderObjectE
fS:__ZN16btPointCollector15addContactPointERK9btVector3S2_f
Wz:__ZN12dmGameSystem26ResDisplayProfilesRecreateERKN10dmResource22ResourceRecreateParamsE
Goa:__ZN11dmHttpCache7ReleaseEPNS_5CacheEPKcS3_P8_IO_FILE
b9:_meth_getfd
loa:_dmHashReverseErase64
Ria:_math_randomseed
c_:__ZN8b2IslandD2Ev
dfa:_luaV_settable
rBa:__ZN5dmGui10LuaSetSizeEP9lua_State
PDa:__ZN7dmCrash11GetSysFieldEiNS_8SysFieldE
GB:__ZN12dmGameSystem16ResSpritePreloadERKN10dmResource21ResourcePreloadParamsE
era:__ZN8dmSocket7ConnectEiNS_7AddressEi
yka:__ZN5dmHID20GetTouchDevicePacketEPNS_7ContextEPNS_17TouchDevicePacketE
PVa:_cosh
ZQa:_ecp_precompute_comb
nA:__ZN12dmGameSystem21ResGamepadMapRecreateERKN10dmResource22ResourceRecreateParamsE
Bk:FUNCTION_TABLE_viiiiiii
Yaa:_io_init
wx:__ZN12dmGameSystem25CompParticleFXAddToUpdateERKN12dmGameObject26ComponentAddToUpdateParamsE
HUa:_mbedtls_camellia_init
QCa:__ZN5dmGuiL17LuaSetInnerRadiusEP9lua_State
as:__ZN10dmResource11HashCompareEPKhjS1_j
Mp:__ZN12dmGameObject20ResPrototypeRecreateERKN10dmResource22ResourceRecreateParamsE
JY:__ZN9b2ContactD2Ev
Zg:_glClear
Spa:__ZL11dmLogThreadPv
SM:__ZN28btHashedOverlappingPairCache26processAllOverlappingPairsEP17btOverlapCallbackP12btDispatcher
hB:__ZN12dmGameSystem21ResRenderScriptCreateERKN10dmResource20ResourceCreateParamsE
Ex:__ZN12dmGameSystem19CompRenderConstantsC2Ev
_8:_meth_connect
mG:__ZN10dmGraphics17GetMaxTextureSizeEPNS_7ContextE
Bka:__ZN5dmHID14GetMouseButtonEPNS_11MousePacketENS_11MouseButtonE
WM:__ZN28btHashedOverlappingPairCache20sortOverlappingPairsEP12btDispatcher
joa:_dmHashReverse32
oj:_pthread_setspecific
dpa:__ZN12dmHttpClientL18HttpContentConsumeEPNS_8ResponseEPviPKvj
mB:__ZN12dmGameSystem17ResRigSceneCreateERKN10dmResource20ResourceCreateParamsE
OUa:_mbedtls_camellia_crypt_cfb128
Zha:_io_flush
km:__ZN12dmGameObjectL6UnlinkEPNS_10CollectionEPNS_8InstanceE
Q1:__ZN8dmRender24RenderScript_SetCullFaceEP9lua_State
eqa:__ZN9dmMessage12DeleteSocketEy
I5:__ZN8dmScript12ModuleLoadedEPNS_7ContextEy
yKa:_ssl_get_hs_frag_len
wea:_constructor
xV:__ZNK11b2GridShape22GetPolygonShapeForCellEjR14b2PolygonShape
Sya:__ZN5dmGui11GetNodeByIdEPNS_5SceneEPKc
uca:_lua_createtable
lVa:_chachapoly_pad_ciphertext
Mca:_lua_concat
v1a:_emscripten_glSampleCoverage__wrapper
bS:__ZN27btContinuousConvexCollision16calcTimeOfImpactERK11btTransformS2_S2_S2_RN12btConvexCast10CastResultE
uDa:__ZN5dmGuiL23GuiScriptInstance_indexEP9lua_State
pea:_singlevaraux
uZ:__ZN12b2MouseJoint24SolveVelocityConstraintsERK12b2SolverData
Kqa:__ZN11dmHashTableIjhE3PutEjRKh
D4a:_emscripten_glTexCoordPointer__wrapper
sEa:__ZN12dmLiveUpdateL36VerifyManifestSupportedEngineVersionEPN10dmResource8ManifestE
NFa:_stb_vorbis_close
p5a:b52
u5a:b53
k5a:b50
Iz:__ZN12dmGameSystem24ResCollectionProxyCreateERKN10dmResource20ResourceCreateParamsE
D5a:b56
JIa:_mbedtls_safer_memcmp
y5a:b54
z5a:b55
ara:__ZN8dmSocket6DeleteEi
Fy:__ZN12dmObjectPoolIN12dmGameSystem15SpriteComponentEE11SetCapacityEj
kFa:__ZN7dmSound20GetSoundResourceSizeEPNS_9SoundDataE
bza:__ZN5dmGui15HasPropertyHashEPNS_5SceneEjy
bJa:_mbedtls_sha256_free
Tja:_loader_Lua
rc:_emscripten_glBindProgramARB
Sk:__ZN8dmEngine6EngineC2EPN15dmEngineService13EngineServiceE
cSa:_mbedtls_md_setup
SB:__ZN12dmGameSystem18ResTextureRecreateERKN10dmResource22ResourceRecreateParamsE
YP:__ZNK10btBoxShape7getNameEv
Ef:_emscripten_glUniform2i
Uo:__ZN12dmGameObjectL19LuaAnimationStoppedEPNS_8InstanceEyybPvS2_
SXa:_a_ctz_l_216
eP:__ZN16btEmptyAlgorithm22getAllContactManifoldsER20btAlignedObjectArrayIP20btPersistentManifoldE
Daa:_except_open
JT:__ZN26btBoxBoxCollisionAlgorithmC2EP20btPersistentManifoldRK36btCollisionAlgorithmConstructionInfoP17btCollisionObjectS6_
uT:__ZN6btDbvt6updateEP10btDbvtNodeR12btDbvtAabbMmRK9btVector3f
w9:_udp_open
Lm:__ZN12dmGameObject19SpawnFromCollectionEPNS_16CollectionHandleEPvP11dmHashTableIyNS_22InstancePropertyBufferEERKN10Vectormath3Aos6Point3ERKNS8_4QuatERKNS8_7Vector3EPS3_IyyE
SYa:_strtod
jGa:_convert_channels_short_interleaved
xMa:_mbedtls_x509_crt_verify_info
WYa:_strtol
BVa:_realloc
Ft:__ZN16dmBlockAllocator4FreeEPNS_7ContextEPvj
zra:__ZN5dmSys5MkdirEPKcj
v3:__ZN8dmScript10ToUserTypeEP9lua_Stateij
Rga:_luaX_lookahead
xz:__ZN12dmGameSystem22ResAnimationSetDestroyERKN10dmResource21ResourceDestroyParamsE
TYa:_strtox
vHa:_mbedtls_pk_get_bitlen
eX:__ZN11b2RopeJointC2EPK14b2RopeJointDef
sz:__ZN12dmGameSystemL31CompTileGridGetConstantCallbackEPvyPPN8dmRender8ConstantE
wA:__ZN12dmGameSystem19ResDestroySceneDescERKN10dmResource21ResourceDestroyParamsE
bOa:_mpi_montg_init
PU:__ZL14btAllocDefaultm
Oma:__ZN5dmRig14CreateBindPoseERN8dmRigDDF8SkeletonER7dmArrayINS_7RigBoneEE
U0:__ZN8dmRender18ClearRenderObjectsEPNS_13RenderContextE
yD:__ZN12dmGameSystemL20Sound_IsMusicPlayingEP9lua_State
XIa:_mbedtls_sha1_starts_ret
BK:__ZN20btAlignedObjectArrayIP17btTypedConstraintE17quickSortInternalI33btSortConstraintOnIslandPredicateEEvT_ii
LT:__ZN16btBoxBoxDetector16getClosestPointsERKN36btDiscreteCollisionDetectorInterface17ClosestPointInputERNS0_6ResultEP12btIDebugDrawb
Jja:_str_find_aux
TV:__ZN16b2BlockAllocatorC2Ev
hDa:__ZN5dmGuiL27EmitterStateChangedCallbackEjyN10dmParticle12EmitterStateEPv
t8:__ZN8dmScript12Zlib_InflateEP9lua_State
Faa:_global_protect
ng:_emscripten_glVertexAttribI3iv
KYa:___overflow
__a:_memset
xe:_emscripten_glGetUniformuiv
Ipa:__ZN7dmImage4FreeEPNS_5ImageE
a3a:_emscripten_glVertexAttribI2uiv__wrapper
lM:__ZNK16btDbvtBroadphase17getBroadphaseAabbER9btVector3S1_
Swa:_WebPSafeMalloc
RL:__ZNK15btNullPairCache26getOverlappingPairArrayPtrEv
tca:_lua_rawgeti
gCa:__ZN5dmGuiL11LuaGetLayerEP9lua_State
cha:_luaB_auxwrap
lba:_opt_set_ip_multicast_loop
qUa:_mbedtls_x509_get_name
w3:__ZN8dmScript13CheckUserTypeEP9lua_StateijPKc
Ola:__ZN10dmParticle11DebugRenderEPNS_7ContextEPvPFvS2_RKN10Vectormath3Aos6Point3ES7_RKNS4_7Vector4EE
UJ:__ZN23btDiscreteDynamicsWorld18addCollisionObjectEP17btCollisionObjectss
Hd:_emscripten_glGenFramebuffers
Xma:__ZN8dmBuffer13IsBufferValidEj
EDa:__ZN5dmGui15GetSceneFromLuaEP9lua_State
gX:__ZN6b2BodyC2EPK9b2BodyDefP7b2World
KL:__ZN20btAxisSweep3InternalItED0Ev
aca:_lua_objlen
Pm:__ZN12dmGameObjectL12InitInstanceEPNS_10CollectionEPNS_8InstanceE
Xa:invoke_viiiiiiiii
FKa:_ssl_record_is_in_progress
Ixa:__ZN11dmHashTableIyN5dmGui11TextureInfoEE11SetCapacityEjj
Px:__ZN12dmGameSystem25AreRenderConstantsUpdatedEPNS_19CompRenderConstantsE
P3:__ZN8dmScript15UnrefInInstanceEP9lua_Statei
Y2a:_emscripten_glVertexAttribI2iv__wrapper
dN:__ZN21btCollisionDispatcherD2Ev
cna:__ZN8dmBuffer8GetCountEjPj
bj:_pthread_attr_setstacksize
Gya:__ZN5dmGuiL18RemoveFromNodeListEPNS_5SceneEPNS_12InternalNodeE
Eb:___syscall54
$W:__ZN11b2RopeJoint4DumpEv
EJ:__ZN35btSequentialImpulseConstraintSolver33resolveSingleConstraintRowGenericER11btRigidBodyS1_RK18btSolverConstraint
jI:__ZN9dmPhysics23DeleteCollisionObject3DEPNS_7World3DEPv
yna:__ZN7dmCrypt10HashSha256EPKhjPh
Qf:_emscripten_glUniform4ui
p1:__ZN8dmRender27RenderScript_ConstantBufferEP9lua_State
e0a:dynCall_viiiiiiiii
ova:_VP8LInverseTransform
d0a:dynCall_viiiiiiiif
KKa:_ssl_buffer_message
_Sa:_mbedtls_oid_get_pk_alg
RC:__ZN12dmGameSystemL33EmitterStateChangedCallbackArgsCBEP9lua_StatePv
D2a:_emscripten_glDetachShader__wrapper
pa:invoke_iiiiiiiiii
IWa:_memchr
XI:__ZN12btIDebugDraw12drawTriangleERK9btVector3S2_S2_S2_S2_S2_S2_f
u1:__ZN8dmRender31RenderScript_DeleteRenderTargetEP9lua_State
K2:__ZN8dmRender7CommandC2ENS_11CommandTypeEmmm
C$:__ZN11dmHashTableIjN8dmRender5GlyphEE11SetCapacityEjj
rL:__ZN20btAxisSweep3InternalItE7setAabbEP17btBroadphaseProxyRK9btVector3S5_P12btDispatcher
OHa:_eckey_alloc_wrap
Qsa:_send_tree
qr:__ZN5dmDDF7Message9ReadFieldEPNS_11LoadContextENS_8WireTypeEPKNS_15FieldDescriptorEPNS_11InputBufferE
qra:__ZN8dmSocket10SetNoDelayEib
tq:__ZN12dmGameObject23CompScriptSetPropertiesERKNS_28ComponentSetPropertiesParamsE
hVa:_mbedtls_chachapoly_update_aad
Dea:_lua_close
GV:__ZNK14b2PolygonShape7RayCastEP15b2RayCastOutputRK14b2RayCastInputRK11b2Transformi
a1:__ZNSt3__218__stable_sort_moveIRN8dmRender16RenderListSorterEPjEEvT0_S5_T_NS_15iterator_traitsIS5_E15difference_typeEPNS8_10value_typeE
fAa:__ZN5dmGui18StopNodeParticlefxEPNS_5SceneEj
d8:__ZN8dmScriptL14Vector3_concatEP9lua_State
mea:_new_localvar
eCa:__ZN5dmGuiL10LuaGetFontEP9lua_State
bBa:__ZN5dmGui10LuaAnimateEP9lua_State
Rya:__ZN5dmGui9SetNodeIdEPNS_5SceneEjPKc
Ssa:_zcfree
Io:__ZN12dmGameObject18Script_SetPositionEP9lua_State
Wpa:__Z12dmSetLogFilePKc
GJa:_ssl_calc_finished_tls_sha256
nX:__ZNK6b2Body13ShouldCollideEPKS_
fPa:_gcm_camellia_setkey_wrap
Gxa:__ZN5dmGui24SetDefaultNewSceneParamsEPNS_14NewSceneParamsE
b5a:_emscripten_glGetActiveUniformsiv__wrapper
ZRa:_mbedtls_hmac_drbg_random
dV:__ZNK13b2CircleShape11ComputeAABBEP6b2AABBRK11b2Transformi
ps:__ZN10dmResource13UpdateFactoryEPNS_16SResourceFactoryE
oqa:__ZN9dmMessage7ConsumeEy
IGa:__ZN12dmSoundCodec6DecodeEPNS_12CodecContextEPNS_7DecoderEPcjPj
OGa:_mbedtls_ctr_drbg_init
vn:__ZN12dmGameObjectL11DeleteBonesEPNS_10CollectionEt
$G:__ZN9dmPhysics7FlipH2DEPv
jEa:__ZN7dmCrash9WriteDumpEv
LOa:_chachapoly_ctx_free
mv:__ZN12dmGameSystem13IsCollision2DEPv
MD:__ZN12dmGameSystem14SpineComp_PlayEP9lua_State
jl:__ZN10dmProfiler18SetUpdateFrequencyEj
h2:__ZN8dmRenderL27RenderScriptInstanceIsValidEP9lua_State
gWa:_stat
DT:__ZN30btActivatingCollisionAlgorithmC2ERK36btCollisionAlgorithmConstructionInfoP17btCollisionObjectS4_
Y:invoke_fif
kwa:_YuvToRgbRow
TLa:_ssl_check_ctr_renegotiate
P_:__ZN15b2DistanceJoint23InitVelocityConstraintsERK12b2SolverData
Gza:__ZN5dmGui18GetNodeRigInstanceEPNS_5SceneEj
qa:invoke_iiiiiiiiiiii
ix:__ZN12dmGameSystemL18RenderListDispatchERKN8dmRender24RenderListDispatchParamsE_2169
Vx:__ZN12dmGameSystem20CompSoundAddToUpdateERKN12dmGameObject26ComponentAddToUpdateParamsE
m4a:___assert_fail__wrapper
lEa:__ZN7dmCrash13PlatformPurgeEv
$Y:__ZN23b2GridAndPolygonContact7DestroyEP9b2ContactP16b2BlockAllocator
OM:__ZN28btHashedOverlappingPairCache20cleanOverlappingPairER16btBroadphasePairP12btDispatcher
LHa:_eckey_verify_wrap
l4:__ZN8dmScript14GetStreamValueIyEEdPvi
iV:__ZNK11b2EdgeShape9TestPointERK11b2TransformRK6b2Vec2
ha:invoke_iii
ioa:_dmHashRelease64
Fh:_glGetError
rAa:__ZN5dmGui24SetNodePerimeterVerticesEPNS_5SceneEjj
yM:__ZN6btDbvt9collideTVEPK10btDbvtNodeRK12btDbvtAabbMmRNS_8ICollideE
IVa:___stdio_seek
z5:__ZN8dmScriptL17JsonToLuaInternalEP9lua_StatePN6dmJson8DocumentEiPcm
Iia:_math_ldexp
EHa:_rsa_encrypt_wrap
k9:_meth_setfd
y4:__ZN8dmScript16InitializeBufferEP9lua_State
b2:__ZN8dmRenderL35RenderScriptConstantBuffer_newindexEP9lua_State
ry:__ZN12dmGameSystemL33CompSpineModelSetConstantCallbackEPvyPjRKN12dmGameObject11PropertyVarE
$0:__ZN8dmRender4DrawEPNS_13RenderContextEPNS_9PredicateEPNS_19NamedConstantBufferE
RCa:__ZN5dmGuiL17LuaGetInnerRadiusEP9lua_State
IG:__ZN10dmGraphics18JobQueueInitializeEv
Rb:__read_sockaddr
vva:_VP8LDspInit
hz:__ZN12dmGameSystemL13UpdateRegionsEPNS_17TileGridComponentE
mX:__ZN6b2Body13PurgeContactsEP9b2Fixture
Cc:_emscripten_glBufferSubData
iG:__ZN10dmGraphics22GetRenderTargetTextureEPNS_12RenderTargetEj
$7:__ZN8dmScriptL11Vector3_subEP9lua_State
lBa:__ZN5dmGui13LuaSetOutlineEP9lua_State
GWa:___lockfile
rNa:_mbedtls_mpi_copy
b4a:_emscripten_glUniform2ui__wrapper
fI:__ZN13btMotionStateD2Ev
h3:__ZN8dmScript8FinalizeEPNS_7ContextE
f4a:_emscripten_glGetTexParameterIuiv__wrapper
wc:_emscripten_glBlendEquation
at:__ZN17dmResourceArchive27NewArchiveIndexWithResourceEPNS_21ArchiveIndexContainerEPKhjPKNS_18LiveUpdateResourceEPKcRPNS_12ArchiveIndexE
AN:__ZNK17btCollisionObject21serializeSingleObjectEP12btSerializer
Cg:_emscripten_memcpy_big
dG:__ZN10dmGraphics27SetDepthStencilRenderBufferEPNS_12RenderTargetEb
Rp:__GLOBAL__sub_I_gameobject_ddf_cpp
tGa:__ZN7dmSound16PlatformFinalizeEv
t_:__ZN24b2ChainAndPolygonContactD0Ev
cn:__ZN11dmTransform11ToTransformERKN10Vectormath3Aos7Matrix4E
fX:__ZNK11b2RopeJoint12GetMaxLengthEv
iZ:__ZN7b2Joint6CreateEPK10b2JointDefP16b2BlockAllocator
ow:__ZN12dmGameSystem18CompGuiSetPropertyERKN12dmGameObject26ComponentSetPropertyParamsE
a4:__ZN8dmScript13SetupCallbackEPNS_15LuaCallbackInfoE
Qi:_llvm_fabs_f64
CA:__ZN12dmGameSystem14ResLabelCreateERKN10dmResource20ResourceCreateParamsE
ff:_emscripten_glStencilMaskSeparate
C5a:_emscripten_glTexSubImage2D__wrapper
TD:__ZN12dmGameSystem17SpineComp_ResetIKEP9lua_State
jxa:_DoGradientFilter
j$a:dynCall_fiiiii
xza:__ZN5dmGuiL16RigEventCallbackEN5dmRig12RigEventTypeEPvS2_S2_
rX:__ZN17b2ContactListenerD0Ev
uv:__GLOBAL__sub_I_comp_factory_cpp
EJa:_ssl_calc_verify_tls
M5:__ZN8dmScript12url_tostringEPKN9dmMessage3URLEPcj
wt:__ZN11dmLoadQueue7EndLoadEPNS_5QueueEPNS_7RequestEPPvPjPNS_10LoadResultE
hJa:_mbedtls_sha256_ret
h9:_meth_listen
Fha:_db_getfenv
PA:__ZN12dmGameSystem16ResMeshSetCreateERKN10dmResource20ResourceCreateParamsE
Gca:_lua_load
WDa:_CrashExt
$za:__ZN5dmGui24SetNodeSpinePlaybackRateEPNS_5SceneEjf
EK:__ZZN23btDiscreteDynamicsWorld16solveConstraintsER19btContactSolverInfoEN27InplaceSolverIslandCallbackD0Ev
x4a:_emscripten_glGetShaderPrecisionFormat__wrapper
R$a:dynCall_viifi
ROa:_des3_crypt_cbc_wrap
yba:_opt_ip6_setmembership
x2a:_emscripten_glBindBuffer__wrapper
lma:__ZN5dmRig9SetCursorEPNS_11RigInstanceEfb
Bxa:__ZN5dmGui21SetPhysicalResolutionEPNS_7ContextEjj
nn:__ZN12dmGameObject14GetComponentIdEPNS_8InstanceEtPy
Nm:__ZN11dmHashTableIyyE3PutEyRKy
HLa:_mbedtls_ssl_conf_handshake_timeout
rs:__ZN10dmResource14ReloadResourceEPNS_16SResourceFactoryEPKcPPNS_19SResourceDescriptorE
KU:__ZN15btGjkEpaSolver211PenetrationEPK13btConvexShapeRK11btTransformS2_S5_RK9btVector3RNS_8sResultsEb
$P:__ZNK21btConvexInternalShape28calculateSerializeBufferSizeEv
Yra:__ZN8dmThread13SetThreadNameEmPKc
j:tempDoublePtr
U1a:_emscripten_glGenerateMipmap__wrapper
zka:__ZN5dmHID21GetAccelerationPacketEPNS_7ContextEPNS_18AccelerationPacketE
t$a:dynCall_iiiii
ELa:_mbedtls_ssl_sig_hash_set_const_hash
xP:__ZN32btSphereSphereCollisionAlgorithmD2Ev
$Ra:_mbedtls_md_info_from_type
cAa:__ZN5dmGui17PlayNodeSpineAnimEPNS_5SceneEjyNS_8PlaybackEfffPFvS1_jbPvS3_ES3_S3_
Ima:__ZN5dmRig11GetIKTargetEPNS_11RigInstanceEy
rJa:_net_would_block
kxa:_DoVerticalFilter
i3a:b38
j3a:b39
c2a:b34
TJa:_ssl_double_retransmit_timeout
_aa:_opt_meth_setoption
j2a:b37
u1a:b30
w1a:b31
Y1a:b32
Cra:__ZN5dmSys22GetNetworkConnectivityEv
xZa:_tmpfile
bQa:_mbedtls_ecdh_setup
vN:__ZN17btCollisionObject24checkCollideWithOverrideEPS_
rC:__ZN12dmGameSystem29ScriptCollectionProxyFinalizeERKNS_16ScriptLibContextE
msa:_WebPDecodeRGBAInto
o4:__ZN8dmScript14GetStreamValueIhEEdPvi
UPa:_mbedtls_dhm_calc_secret
B8:_bit_bor
Du:__ZN12dmGameSystem30CompCollisionObjectDeleteWorldERKN12dmGameObject26ComponentDeleteWorldParamsE
KHa:_eckey_can_do
Sja:_loader_preload
usa:_deflateInit2_
dS:__ZN16btPointCollector20setShapeIdentifiersAEii
Of:_emscripten_glUniform4i
pp:__ZN12dmGameObject12DeleteScriptEPNS_6ScriptE
Ppa:__ZN6dmJson4FreeEPNS_8DocumentE
Baa:_buffer_meth_receive
WEa:__ZN7dmSoundL19MixResampleUpStereoIhLi128ELi255EEEvPKNS_10MixContextEPNS_13SoundInstanceEjjPfj
cia:_io_popen
cL:__ZN11btRigidBody12applyGravityEv
Mf:_emscripten_glUniform4f
q2a:_emscripten_glBindTexture__wrapper
oaa:_auxiliar_newclass
Ge:_emscripten_glIsEnabledi
C_:__ZN15b2ContactSolver29InitializeVelocityConstraintsEv
bKa:_ssl_update_out_pointers
TCa:__ZN5dmGuiL17LuaGetOuterBoundsEP9lua_State
ft:__ZN10dmResource18MakePathDescriptorEPNS_17ResourcePreloaderEPKcRNS_14PathDescriptorE
Uya:__ZN5dmGui12GetNodeCountEPNS_5SceneE
F2:__GLOBAL__sub_I_material_ddf_cpp
Tf:_emscripten_glUniformMatrix3fv
qy:__ZN12dmGameSystem23CompSpineModelOnMessageERKN12dmGameObject24ComponentOnMessageParamsE
n:threwValue
QZa:__get_timezone
YN:__ZZN16btCollisionWorld13rayTestSingleERK11btTransformS2_P17btCollisionObjectPK16btCollisionShapeS2_RNS_17RayResultCallbackEEN29BridgeTriangleRaycastCallbackD0E_0v
SQa:_mbedtls_ecp_tls_read_group_id
ru:__ZN12dmGameSystem24CompCollectionProxyFinalERKN12dmGameObject20ComponentFinalParamsE
cpa:__ZN12dmHttpClientL10DoTransferEPNS_6ClientEPNS_8ResponseEiPFvS3_PviPKvjEb
Lk:setThrew
wPa:_aes_ctx_alloc
IV:__ZNK14b2PolygonShape11ComputeMassEP10b2MassDataf
OSa:_sha384_finish_wrap
KR:__ZNK23btPolyhedralConvexShape37localGetSupportingVertexWithoutMarginERK9btVector3
Gi:_glfwSetWindowSize
Rha:_db_errorfb
$Da:__ZN7dmCrashL18Crash_GetUserFieldEP9lua_State
QTa:_ssl_parse_hello_verify_request
Wma:__ZN8dmBuffer18GetValueTypeStringENS_9ValueTypeE
fYa:_fflush
hXa:_threebyte_strstr
Ss:__ZN17dmResourceArchive22CountLiveUpdateEntriesEPKNS_21ArchiveIndexContainerES2_
h7:__ZN8dmScriptL19Matrix4_PerspectiveEP9lua_State
dPa:_ccm_ctx_alloc
YR:__ZNK13btSphereShape24localGetSupportingVertexERK9btVector3
UYa:_strcspn
ODa:__ZN7dmCrash9GetSignumEi
V_:__ZNK15b2FrictionJoint16GetReactionForceEf
GTa:_ssl_conf_has_static_psk
v$:__ZN8dmRender21DeleteDisplayProfilesEPNS_15DisplayProfilesE
OVa:_copysign
Cqa:__ZN8dmPPrint7Printer6PrintfEPKcz
Tc:_emscripten_glCompressedTexImage2D
$Ea:__ZN7dmSoundL25MixResampleIdentityStereoIsLi0ELi1EEEvPKNS_10MixContextEPNS_13SoundInstanceEjjPfj
bA:__ZN12dmGameSystem18ResFactoryRecreateERKN10dmResource22ResourceRecreateParamsE
hba:_opt_set_dontroute
g3a:_emscripten_glVertexAttribI4usv__wrapper
L8:_global_skip
NU:__ZN12gjkepa2_impl3EPA7newfaceEPNS_3GJK3sSVES3_S3_b
p2a:_emscripten_glDeleteTextures__wrapper
k2a:_emscripten_glPixelStorei__wrapper
Jha:_db_getregistry
fHa:_mbedtls_md5_starts_ret
Vb:_clock_gettime
WPa:_mbedtls_dhm_free
nI:__ZN9dmPhysics12SetEnabled3DEPNS_7World3DEPvb
t7:__ZN8dmScriptL4LerpEP9lua_State
hna:__ZN12dmConfigFileL7GetCharEPNS_7ContextE
la:invoke_iiiiii
Z1a:_emscripten_glUniform1f__wrapper
kNa:_mbedtls_asn1_get_alg
Zda:_luaO_int2fb
FW:__ZNK15b2RevoluteJoint17GetReactionTorqueEf
WIa:_mbedtls_sha1_clone
ORa:_gcm_mult
Laa:_inet_global_getaddrinfo
Bya:__ZN5dmGui16UpdateAnimationsEPNS_5SceneEf
yJ:__ZN35btSequentialImpulseConstraintSolver45solveGroupCacheFriendlySplitImpulseIterationsEPP17btCollisionObjectiPP20btPersistentManifoldiPP17btTypedConstraintiRK19btContactSolverInfoP12btIDebugDrawP12btStackAlloc
rq:__ZN12dmGameObject17CompScriptOnInputERKNS_22ComponentOnInputParamsE
uy:__ZN12dmGameSystemL33CompSpineModelGetConstantCallbackEPvyPPN8dmRender8ConstantE
kg:_emscripten_glVertexAttribI2ui
yNa:_mbedtls_mpi_bitlen
_k:__ZN8dmEngine8DispatchEPN9dmMessage7MessageEPv
DMa:_x509_profile_check_pk_alg
uB:__ZN12dmGameSystem15ResSoundPreloadERKN10dmResource21ResourcePreloadParamsE
uD:__ZN12dmLiveUpdateL22Callback_StoreResourceEPNS_25StoreResourceCallbackDataE
_wa:_VP8ParseQuant
uwa:_ConvertARGBToY
k_a:___dynamic_cast
MW:__ZNK15b2RevoluteJoint13GetJointAngleEv
qZa:_setvbuf
z4:__ZN8dmScriptL6CreateEP9lua_State
wna:__ZN7dmCrypt7DecryptEPKhjS1_jPPhPj
gm:__ZN12dmGameObject16CreateComponentsEPNS_10CollectionEPNS_8InstanceE
Eea:_callallgcTM
tQa:_ecdsa_signature_to_asn1
Hha:_db_getinfo
zO:__ZN16btManifoldResult20setShapeIdentifiersAEii
qK:__ZN23btDiscreteDynamicsWorld25predictUnconstraintMotionEf
ySa:_sha1_ctx_alloc
IZa:_srand
NX:__ZN7b2WorldC2ERK6b2Vec2
Wu:__ZN12dmGameSystemL15RayCastCallbackERKN9dmPhysics15RayCastResponseERKNS0_14RayCastRequestEPv
SG:__ZN17b2ContactListener10EndContactEP9b2Contact
Im:__ZN12dmGameObject20ReleaseInstanceIndexEjPNS_16CollectionHandleE
Cha:_generic_reader
kWa:_isspace
ega:_luaK_patchlist
yxa:__ZN5dmGui18SetSceneResolutionEPNS_5SceneEjj
oq:__ZN12dmGameObject21CompScriptAddToUpdateERKNS_26ComponentAddToUpdateParamsE
za:invoke_vi
qla:__ZN10dmParticle6ReHashEPNS_7ContextEj
Or:__ZN5dmDDF12OutputStream9WriteBoolEb
HE:__ZN12dmGameSystem15LogMessageErrorEPN9dmMessage7MessageEPKcz
X:invoke_fi
sa:invoke_vd
va:invoke_vf
nc:_emscripten_glBindBufferBase
$O:__ZN33btConvexConcaveCollisionAlgorithm10CreateFunc24CreateCollisionAlgorithmER36btCollisionAlgorithmConstructionInfoP17btCollisionObjectS4_
VX:__ZN7b2World5SolveERK10b2TimeStep
rwa:_WebPConvertARGBToUV_C
jo:__ZN12dmGameObject8PushHashEPNS_24PropertyContainerBuilderEyy
Hx:__ZN12dmGameSystem11GetPropertyERN12dmGameObject12PropertyDescEyRKN10Vectormath3Aos7Vector4ERKNS_11PropVector4E
vPa:_aes_setkey_dec_wrap
v$a:dynCall_iiiiiii
dBa:__ZN5dmGui12LuaGetParentEP9lua_State
dQ:__ZNK10btBoxShape49batchedUnitVectorGetSupportingVertexWithoutMarginEPK9btVector3PS0_i
lW:__ZN7b2JointD2Ev
mz:__ZN12dmGameSystem18CompTileGridRenderERKN12dmGameObject22ComponentsRenderParamsE
r1:__ZN8dmRender25RenderScript_DisableStateEP9lua_State
ZPa:_mbedtls_ecdh_compute_shared
p_:__ZN23b2ChainAndCircleContactD0Ev
tXa:_getsockname
Xja:_ll_require
nQa:_ecdh_calc_secret_internal
uR:__ZNK17btConvexHullShape8isInsideERK9btVector3f
Ev:__ZN12dmGameSystem15CompFactoryLoadEPN12dmGameObject16CollectionHandleEPNS_16FactoryComponentE
bea:_luaO_str2d
J$a:dynCall_vif
Ki:_glfwSwapInterval
Cd:_emscripten_glFramebufferRenderbuffer
en:__ZN12dmGameObject5FinalEPNS_16CollectionHandleE
H1:__ZN8dmRender20RenderScript_SetViewEP9lua_State
lda:_luaD_precall
zHa:_rsa_get_bitlen
Fza:__ZN5dmGui16SetNodeSpineSkinEPNS_5SceneEjy
rca:_lua_getfield
sda:_luaD_protectedparser
rEa:__ZN12dmLiveUpdate14VerifyManifestEPN10dmResource8ManifestE
bR:__ZN15btCompoundShapeC2Eb
IQ:__ZNK16btCollisionShape17getBoundingSphereER9btVector3Rf
coa:_dmHashUpdateBuffer32
N4:__ZN8dmScript8CheckDDFEP9lua_StatePKN5dmDDF10DescriptorEPcji
E3a:_emscripten_glUniform2iv__wrapper
oBa:__ZN5dmGui14LuaGetRotationEP9lua_State
rxa:__ZN5dmGui11TextMetricsC2Ev
Wna:_dmHashBufferNoReverse32
yl:__ZL27check_callback_and_instanceP15JsToDefListener
tY:__ZN13b2DynamicTree10RemoveLeafEi
nJa:_mbedtls_sha512_update_ret
G5a:b57
lNa:_mbedtls_asn1_get_alg_null
qga:_discharge2reg
Vr:__ZN10dmResource11GetManifestEPNS_16SResourceFactoryE
co:__ZN12dmGameObject21LoadPropertyResourcesEPN10dmResource16SResourceFactoryEPPKcjR7dmArrayIPvE
KJ:__ZN35btSequentialImpulseConstraintSolver28setFrictionConstraintImpulseER18btSolverConstraintP11btRigidBodyS3_R15btManifoldPointRK19btContactSolverInfo
yA:__ZN12dmGameSystem21ResInputBindingCreateERKN10dmResource20ResourceCreateParamsE
bh:_glColorMask
QP:__ZN22SphereTriangleDetector16getClosestPointsERKN36btDiscreteCollisionDetectorInterface17ClosestPointInputERNS0_6ResultEP12btIDebugDrawb
jQa:_ecdh_get_params_internal
WG:__ZN9dmPhysics12NewContext2DERKNS_16NewContextParamsE
M2:__ZN8dmRender13ParseCommandsEPNS_13RenderContextEPNS_7CommandEj
Fk:FUNCTION_TABLE_viiiiiiiiii
eT:__ZN22btVoronoiSimplexSolver25closestPtPointTetrahedronERK9btVector3S2_S2_S2_S2_R25btSubSimplexClosestResult
PZa:__get_daylight
kka:__ZN5dmHID10NewContextERKNS_16NewContextParamsE
vEa:__ZN12dmLiveUpdate13StoreManifestEPN10dmResource8ManifestE
aN:__ZN28btHashedOverlappingPairCache15internalAddPairEP17btBroadphaseProxyS1_
Ue:_emscripten_glPolygonOffset
cC:__ZN12dmGameSystem19ResTileGridRecreateERKN10dmResource22ResourceRecreateParamsE
h2a:_emscripten_glVertexAttrib4f__wrapper
ela:__GLOBAL__sub_I_input_ddf_cpp
CGa:__ZN10dmDeviceJS12DeviceJSStopEPv
WF:__ZN10dmGraphics15GetUniformCountEm
fU:__ZN24btConvexTriangleCallbackD2Ev
I_a:runPostSets
Mra:__ZN5dmSys13SetEngineInfoERNS_15EngineInfoParamE
caa:_socket_recvfrom
B4:__ZN8dmScriptL8GetBytesEP9lua_State
dZ:__ZN25b2PolygonAndCircleContact7DestroyEP9b2ContactP16b2BlockAllocator
cA:__ZN12dmGameSystem16AcquireResourcesEPN10dmResource16SResourceFactoryEPN8dmRender13RenderContextEPN11dmRenderDDF7FontMapEPNS3_7FontMapEPKcPSA_b
QI:__ZN9dmPhysics11DebugDraw2D9DrawArrowERK6b2Vec2S3_RK7b2Color
dR:__ZN20btAlignedObjectArrayI20btCompoundShapeChildE9push_backERKS0_
Q0a:_memset__wrapper
qx:__ZN12dmGameSystem21CompModelGetComponentEPNS_10ModelWorldEm
QE:__ZN10dmGraphics13DeleteContextEPNS_7ContextE
RU:__Z22btAlignedAllocInternalmi
_Ga:_entropy_update
j6:__ZN8dmScript19Sys_SetErrorHandlerEP9lua_State
Ela:__ZN10dmParticle14RetireInstanceEPNS_7ContextEj
si:_glfwGetWindowRefreshRate
_1a:_emscripten_glVertexAttrib1f__wrapper
CP:__ZN32btSphereSphereCollisionAlgorithmC2EP20btPersistentManifoldRK36btCollisionAlgorithmConstructionInfoP17btCollisionObjectS6_
_E:__ZN10dmGraphics13DeleteTextureEPNS_7TextureE
Xj:FUNCTION_TABLE_iiiiiiiii
dIa:_pk_group_from_specified
FF:__ZN10dmGraphics23EnableVertexDeclarationEPNS_7ContextEPNS_17VertexDeclarationEmm
on:__ZN12dmGameObject11ScaleAlongZEPNS_8InstanceE
BI:__ZN9dmPhysics16StepWorldContextC2Ev
mba:_opt_get_ip_multicast_loop
Se:_emscripten_glNormalPointer
sTa:_mbedtls_ssl_ciphersuite_uses_psk
In:__ZN12dmGameObject13GetCollectionEPNS_8InstanceE
zL:__ZN20btAxisSweep3InternalItE9resetPoolEP12btDispatcher
ib:___lock
W7:__ZN8dmScriptL10Vector4_eqEP9lua_State
JHa:_eckey_get_bitlen
iGa:_stb_vorbis_open_memory
vt:__ZN11dmLoadQueue9BeginLoadEPNS_5QueueEPKcS3_PNS_11PreloadInfoE
GQ:__ZNK21btConvexInternalShape32getPreferredPenetrationDirectionEiR9btVector3
J5:__ZN8dmScript16InitializeModuleEP9lua_State
xUa:_mbedtls_x509_get_sig_alg
b2a:_emscripten_glVertexAttrib2f__wrapper
zIa:_mbedtls_rsa_rsaes_oaep_decrypt
Toa:__ZN12dmHttpClient3NewEPKNS_9NewParamsEPKctb
Tha:_gethooktable
oha:_luaB_pcall
Cia:_math_cos
GO:__ZN31btDefaultCollisionConfiguration31getCollisionAlgorithmCreateFuncEii
rYa:_mbrtowc
Eoa:__ZN11dmHttpCache3GetEPNS_5CacheEPKcS3_PP8_IO_FILEPy
Cf:_emscripten_glUniform2f
tHa:_mbedtls_pk_get_len
kq:__ZN12dmGameObject9RunScriptEP9lua_StatePNS_6ScriptENS_14ScriptFunctionEPNS_14ScriptInstanceERKNS_15RunScriptParamsE
IH:__ZN9dmPhysics16SetJointParams2DEPNS_7World2DEPvNS_9JointTypeERKNS_18ConnectJointParamsE
pKa:_ssl_reset_retransmit_timeout
y:Math_floor
eC:__ZN12dmGameSystem22ResVertexProgramCreateERKN10dmResource20ResourceCreateParamsE
fja:_os_time
xIa:_mbedtls_rsa_rsaes_pkcs1_v15_encrypt
_l:__ZN12dmGameObject14DeleteRegisterEPNS_8RegisterE
hY:__ZN12b2BroadPhase11CreateProxyERK6b2AABBPv
HY:__ZN9b2Contact7DestroyEPS_P16b2BlockAllocator
SR:__ZN13btSphereShapeD0Ev
fUa:_ssl_write_max_fragment_length_ext
NP:__ZN20btAlignedObjectArrayI9btElementE17quickSortInternalI31btUnionFindElementSortPredicateEEvT_ii
DVa:_dispose_chunk
tX:__ZN16b2ContactManagerC2Ev
Pk:__Z11engine_mainiPPc
mBa:__ZN5dmGui12LuaGetShadowEP9lua_State
TC:__ZN12dmGameSystem15ParticleFX_StopEP9lua_State
tk:FUNCTION_TABLE_viiif
vca:_lua_getmetatable
xl:__ZL23JsToDef_SendBoolMessagePKci
vk:FUNCTION_TABLE_viiii
e3a:_emscripten_glVertexAttribI4sv__wrapper
Noa:__ZN17dmHttpCacheVerifyL11HttpContentEPN12dmHttpClient8ResponseEPviPKvj
dwa:_WebPYuv444ToArgbC
jA:__ZN12dmGameSystem25ResFragmentProgramDestroyERKN10dmResource21ResourceDestroyParamsE
R0a:b16
S0a:b17
O0a:b14
P0a:b15
G0a:b12
H0a:b13
r0a:b10
u0a:b11
mOa:_mbedtls_cipher_init
T0a:b18
U0a:b19
KE:__ZN10dmGraphics12WindowParamsC2Ev
kS:__ZN30btGjkEpaPenetrationDepthSolver12calcPenDepthER22btVoronoiSimplexSolverPK13btConvexShapeS4_RK11btTransformS7_R9btVector3S9_S9_P12btIDebugDrawP12btStackAlloc
bC:__ZN12dmGameSystem18ResTileGridDestroyERKN10dmResource21ResourceDestroyParamsE
QUa:_mbedtls_ccm_setkey
_c:_emscripten_glDeleteBuffers
Qxa:__ZN11dmHashTableIyN5dmGui14DynamicTextureEE3PutEyRKS1_
Xua:_VE16
SZ:__ZN11b2WeldJointC2EPK14b2WeldJointDef
X5:__ZN8dmScriptL12URL_newindexEP9lua_State
$t:__ZN12dmGameSystem18CompCameraOnReloadERKN12dmGameObject23ComponentOnReloadParamsE
R7:__ZN8dmScriptL11Vector4_subEP9lua_State
XPa:_mbedtls_ecdh_gen_public
qfa:_luaL_where
R8:_make_assoc
sBa:__ZN5dmGui10LuaGetSizeEP9lua_State
uO:__ZZN16btCollisionWorld17objectQuerySingleEPK13btConvexShapeRK11btTransformS5_P17btCollisionObjectPK16btCollisionShapeS5_RNS_20ConvexResultCallbackEfEN32BridgeTriangleConvexcastCallback9reportHitERK9btVector3SG_fii
kW:__ZN16b2PrismaticJoint4DumpEv
kda:_luaD_callhook
Mja:_match_class
uha:_luaB_setfenv
LL:__ZN15btNullPairCacheD2Ev
uia:_luaopen_math
Pca:_lua_setupvalue
Iaa:_finalize
$H:__ZN9dmPhysics16NewSphereShape3DEPNS_9Context3DEf
d$:__ZNK11b2GearJoint16GetReactionForceEf
rSa:_md5_ctx_alloc
eg:_emscripten_glVertexAttribI1i
g3:__ZN8dmScript6UpdateEPNS_7ContextE
WWa:_wctomb
ZYa:___strcoll_l
sNa:_mbedtls_mpi_safe_cond_assign
b3a:_emscripten_glVertexAttribI3uiv__wrapper
Bo:__ZN12dmGameObject10Script_SetEP9lua_State
rRa:_ecp_check_pubkey_mx
DFa:__ZN7dmSound14IsMusicPlayingEv
f0:__ZN8dmRender33GetMaterialProgramConstantElementEPNS_8MaterialEyjRf
UCa:__ZN5dmGuiL13LuaSetLeadingEP9lua_State
N$:__ZN8dmRender15AddGlyphToCacheEPNS_7FontMapERNS_11TextContextEPNS_5GlyphEs
HNa:_mbedtls_mpi_cmp_abs
wv:__ZN12dmGameSystem22CompFactoryDeleteWorldERKN12dmGameObject26ComponentDeleteWorldParamsE
XK:__ZN11btRigidBody12setMassPropsEfRK9btVector3
mfa:_luaZ_openspace
HCa:__ZN5dmGuiL15LuaShowKeyboardEP9lua_State
rS:__ZN33btMinkowskiPenetrationDepthSolver12calcPenDepthER22btVoronoiSimplexSolverPK13btConvexShapeS4_RK11btTransformS7_R9btVector3S9_S9_P12btIDebugDrawP12btStackAlloc
Mta:_VP8InitIoInternal
K4:__ZN8dmScriptL9Buffer_gcEP9lua_State
aoa:_dmHashInit32
M2a:_emscripten_glBlendFunc__wrapper
e$a:dynCall_fi
Hb:___syscall91
Zy:__ZN12dmGameSystem23CompTileGridDeleteWorldERKN12dmGameObject26ComponentDeleteWorldParamsE
Lha:_db_getupvalue
ZY:__ZN23b2GridAndPolygonContactD0Ev
$T:__ZN33btConvexConcaveCollisionAlgorithm16processCollisionEP17btCollisionObjectS1_RK16btDispatcherInfoP16btManifoldResult
KXa:_getsockopt
tta:_VP8ExitCritical
zPa:_mbedtls_des_free
AQ:__ZN14btCapsuleShape9setMarginEf
nna:__ZN12dmConfigFileL20LoadFromFileInternalEPKciPS1_PPNS_6ConfigE
cOa:_mpi_montmul
Rf:_emscripten_glUniformBlockBinding
HKa:_ssl_load_buffered_message
wQ:__ZNK14btCapsuleShape7getAabbERK11btTransformR9btVector3S4_
xFa:__ZN7dmSound4PlayEPNS_13SoundInstanceE
Dm:__ZN12dmGameObject15UndoNewInstanceEPNS_10CollectionEPNS_8InstanceE
t3:__ZN8dmScript16RegisterUserTypeEP9lua_StatePKcPK8luaL_RegS6_
mGa:__ZN12dmSoundCodec14WavCloseStreamEPv
zba:_opt_set_ip6_drop_membersip
sr:__ZN5dmDDF17DoResolvePointersEPKNS_10DescriptorEPv
Eq:__ZN5dmDDFL17CalculateRepeatedEPNS_11LoadContextEPNS_11InputBufferEPKNS_10DescriptorE
kra:__ZN8dmSocket13SelectorIsSetEPNS_8SelectorENS_12SelectorKindEi
cg:_emscripten_glVertexAttrib4fv
XTa:_ssl_parse_session_ticket_ext
tua:_TransformWHT
aZa:_iscntrl
oka:__ZN5dmHID18IsGamepadConnectedEPNS_7GamepadE
$q:__ZN5dmDDF11InputBuffer10ReadDoubleEPd
Pg:_glActiveTexture
dja:_os_rename
foa:_dmHashClone64
vh:_glEnableVertexAttribArray
yVa:_malloc
pha:_luaB_print
aia:_io_open
HJ:__ZN35btSequentialImpulseConstraintSolver12getFixedBodyEv
Zm:__ZN12dmGameObject24DispatchMessagesFunctionEPN9dmMessage7MessageEPv
jr:__ZN5dmDDF7Message9SetScalarEPKNS_15FieldDescriptorEPKvi
oW:__ZN16b2PrismaticJoint24SolveVelocityConstraintsERK12b2SolverData
Bt:__ZN10dmResource22UnmountArchiveInternalERPN17dmResourceArchive21ArchiveIndexContainerEPv
x4:__ZN8dmScript14SetStreamValueIhEEvPvid
Hda:_luaC_callGCTM
JGa:__ZN12dmSoundCodec4SkipEPNS_12CodecContextEPNS_7DecoderEjPj
CY:__ZN16b2StackAllocator4FreeEPv
YOa:_des_crypt_ecb_wrap
MCa:__ZN5dmGuiL18LuaSetPieFillAngleEP9lua_State
BBa:__ZN5dmGui20LuaGetSpineAnimationEP9lua_State
Dfa:_luaL_getmetafield
$6:__ZN8dmScriptL14Quat_AxisAngleEP9lua_State
TB:__ZN12dmGameSystem16AcquireResourcesEPN9dmPhysics9Context2DEPN10dmResource16SResourceFactoryEPN15dmGameSystemDDF10TextureSetEPNS_18TextureSetResourceEPKcb
YTa:_ssl_parse_supported_point_formats_ext
UUa:_mbedtls_ccm_encrypt_and_tag
gf:_emscripten_glStencilOp
UMa:_mbedtls_aes_init
yia:_math_atan2
mza:__ZN5dmGui18GetNodeTextLeadingEPNS_5SceneEj
Qfa:_luaL_loadfile
rQ:__ZZN22btBvhTriangleMeshShape14performRaycastEP18btTriangleCallbackRK9btVector3S4_EN21MyNodeOverlapCallback11processNodeEii
Cs:__ZN10dmResource11SetResourceEPNS_16SResourceFactoryEyPv
NTa:_ssl_parse_signature_algorithm
dea:_luaO_pushfstring
YRa:_mbedtls_hmac_drbg_random_with_add
dia:_io_read
kn:__ZN12dmGameObject25GetInstanceFromIdentifierEPNS_10CollectionEy
XEa:__ZN7dmSoundL19MixResampleUpStereoIsLi0ELi1EEEvPKNS_10MixContextEPNS_13SoundInstanceEjjPfj
TG:__ZN17b2ContactListener8PreSolveEP9b2ContactPK10b2Manifold
QK:__ZN17btCollisionObject17setCollisionShapeEP16btCollisionShape
PXa:_trinkle
wm:__ZNSt3__26__sortIRN12dmGameObject21ComponentTypeSortPredEPtEEvT0_S5_T_
nVa:_chachapoly_crypt_and_tag
OIa:_mbedtls_rsa_pkcs1_verify
fga:_luaK_patchtohere
RF:__ZN10dmGraphics19DeleteVertexProgramEm
faa:_socket_hoststrerror
AJa:_tls_prf_generic
s0a:_emscripten_glCreateProgram__wrapper
xna:__ZN7dmCrypt8HashSha1EPKhjPh
Eca:_lua_pcall
Mz:__ZN12dmGameSystem24ResCollisionObjectCreateERKN10dmResource20ResourceCreateParamsE
r4:__ZN8dmScript14SetStreamValueIiEEvPvid
rDa:__ZN5dmGuiL18NodeProxy_newindexEP9lua_State
vya:__ZN5dmGui20UpdateLocalTransformEPNS_5SceneEPNS_12InternalNodeE
Aba:_opt_get_ip6_v6only
QA:__ZN12dmGameSystem17ResMeshSetDestroyERKN10dmResource21ResourceDestroyParamsE
Zp:__ZN12dmGameObject19CompAnimAddToUpdateERKNS_26ComponentAddToUpdateParamsE
Wsa:__ZN19dmConditionVariable6SignalEPNS_17ConditionVariableE
F7:__ZN8dmScriptL14Matrix4_concatEP9lua_State
Xwa:_inflate_fast
RG:__ZN17b2ContactListener12BeginContactEP9b2Contact
Rm:__ZNK10Vectormath3Aos7Matrix4mlERKS1_
A3a:_emscripten_glGetVertexAttribiv__wrapper
M1:__ZN8dmRender27RenderScript_SetStencilMaskEP9lua_State
rfa:_luaL_checkoption
Zj:FUNCTION_TABLE_iiiiiiiiiiii
MLa:_mbedtls_ssl_get_verify_result
MAa:__ZN5dmGui13MoveNodeBelowEPNS_5SceneEjj
I0a:_emscripten_glGetStringi__wrapper
gEa:__ZN7dmCrashL18Crash_SetUserFieldEP9lua_State
nEa:_JSWriteDump
gga:_luaK_checkstack
yn:__ZN12dmGameObject15GetUniformScaleEPNS_8InstanceE
sSa:_md5_ctx_free
Gja:_str_reverse
Yx:__GLOBAL__sub_I_comp_spine_model_cpp
Xba:_lua_lessthan
wga:_luaK_goiftrue
Pq:__ZN5dmDDF11InputBufferC2Ev
Gh:_glGetIntegerv
eBa:__ZN5dmGui14LuaGetPositionEP9lua_State
eM:__ZN16btDbvtBroadphase7setAabbEP17btBroadphaseProxyRK9btVector3S4_P12btDispatcher
hra:__ZN8dmSocket4SendEiPKviPi
iT:__ZN22btVoronoiSimplexSolver14compute_pointsER9btVector3S1_
yf:_emscripten_glUniform1fv
dr:__ZN5dmDDF11InputBuffer10ReadUInt64EPy
Bi:_glfwSetGamepadCallback
Hka:__ZN5dmHIDL15GamepadCallbackEii
kE:__ZN12dmGameSystemL18TileMap_SetVisibleEP9lua_State
Yla:__ZN10dmParticle11GetMaterialEPNS_9PrototypeEj
w7:__ZN8dmScriptL6RotateEP9lua_State
_qa:__ZN8dmSocket3NewENS_6DomainENS_4TypeENS_8ProtocolEPi
sB:__ZN12dmGameSystem19ResSkeletonRecreateERKN10dmResource22ResourceRecreateParamsE
Sza:__ZN5dmGui12SetNodeLayerEPNS_5SceneEjy
Wka:__ZN7dmInputL17NewGamepadBindingEPNS_7BindingEj
qta:_FinishRow
XT:__ZN22btCompoundLeafCallback7ProcessEPK10btDbvtNode
Yba:_lua_tonumber
KK:__ZN15btTransformUtil18integrateTransformERK11btTransformRK9btVector3S5_fRS0_
KAa:__ZN5dmGui14SetNodeEnabledEPNS_5SceneEjb
L4:__ZN8dmScriptL15Buffer_tostringEP9lua_State
G2a:_emscripten_glDeleteFramebuffers__wrapper
dRa:_mbedtls_mpi_mul_mod
pF:__ZN10dmGraphics5ClearEPNS_7ContextEjhhhhfj
bga:_luaK_concat
Dja:_str_lower
J1a:_emscripten_glEnableVertexAttribArray__wrapper
eka:__ZN11dmExtension13AppInitializeEPNS_9AppParamsE
Uoa:__ZN12dmHttpClient3NewEPKNS_9NewParamsEPKct
Ita:_EmitYUV
l0:__ZN8dmRender20SetMaterialUserData1EPNS_8MaterialEy
PGa:_mbedtls_ctr_drbg_seed_entropy_len
fA:__ZN12dmGameSystem17ResFontMapDestroyERKN10dmResource21ResourceDestroyParamsE
q_:__ZN23b2ChainAndCircleContact6CreateEP9b2FixtureiS1_iP16b2BlockAllocator
cba:_opt_set_reuseport
pVa:_mbedtls_poly1305_init
LBa:__ZN5dmGuiL15LuaNewSpineNodeEP9lua_State
vP:__ZN25btSimulationIslandManager22buildAndProcessIslandsEP12btDispatcherP16btCollisionWorldPNS_14IslandCallbackE
gba:_opt_get_keepalive
Iya:__ZN5dmGuiL16AnimateComponentEPNS_5SceneEjPffN8dmEasing5CurveENS_8PlaybackEfffPFvS1_jbPvS6_ES6_S6_
TKa:_ssl_update_in_pointers
jz:__ZN12dmGameSystem23CompTileGridAddToUpdateERKN12dmGameObject26ComponentAddToUpdateParamsE
Hba:_lua_atpanic
VU:__ZN15CProfileManager13Start_ProfileEPKc
VL:__ZN15btNullPairCache19cleanProxyFromPairsEP17btBroadphaseProxyP12btDispatcher
N2:__GLOBAL__sub_I_script_cpp
_0:__ZNSt3__213__stable_sortIRN8dmRender16RenderListSorterEPjEEvT0_S5_T_NS_15iterator_traitsIS5_E15difference_typeEPNS8_10value_typeEl
XKa:_ssl_prepare_record_content
sR:__ZNK17btConvexHullShape12getNumPlanesEv
L0:__ZN8dmRender15RenderListAllocEPNS_13RenderContextEj
Rh:_glRenderbufferStorage
iBa:__ZN5dmGui11LuaGetColorEP9lua_State
Zra:__ZN6dmTime5SleepEj
rv:__ZN12dmGameSystem17CompEmitterCreateERKN12dmGameObject21ComponentCreateParamsE
AYa:_scalbnl
GHa:_rsa_alloc_wrap
xk:FUNCTION_TABLE_viiiiffffiif
Awa:_VP8GetSignedValue
oN:__ZN21btCollisionDispatcher26getInternalManifoldPointerEv
w5:__ZN8dmScript10Image_LoadEP9lua_State
SJa:_ssl_set_timer
qh:_glDisable
xa:invoke_vffff
MDa:__ZN7dmCrash13IsValidHandleEi
w3a:_emscripten_glGetRenderbufferParameteriv__wrapper
bqa:__ZN11dmHashTableIyN9dmMessage13MessageSocketEE11SetCapacityEjj
Id:_emscripten_glGenRenderbuffers
Zb:_dmDeviceJSQueue
zia:_math_atan
KFa:__ZN12dmSoundCodec16StbVorbisGetInfoEPvPNS_4InfoE
m3:__ZN8dmScript9GetGlobalEP9lua_Statej
kY:__ZN12b2BroadPhase10TouchProxyEi
IHa:_rsa_debug
UOa:_des3_ctx_alloc
LVa:___stdio_write
_0a:_emscripten_glLoadIdentity__wrapper
Kf:_emscripten_glUniform3iv
Fg:_emscripten_set_main_loop_arg
X1:__ZN8dmRender27RenderScript_EnableMaterialEP9lua_State
AAa:__ZN5dmGui13GetNodeIsBoneEPNS_5SceneEj
$va:_WebPYuv444ToRgbC
bxa:_VP8ParseProba
wR:__ZN21btConvexInternalShapeD0Ev
Tu:__ZN12dmGameSystem16DispatchCallbackEPN9dmMessage7MessageEPv
Vza:__ZN5dmGui21GetNodeFlipbookCursorEPNS_5SceneEj
mSa:_mbedtls_md_get_size
gda:_luaD_rawrunprotected
Jp:__ZN12dmGameObject18ResPrototypeCreateERKN10dmResource20ResourceCreateParamsE
i$:__ZN11b2GearJoint24SolveVelocityConstraintsERK12b2SolverData
nO:__ZN16btCollisionWorld17objectQuerySingleEPK13btConvexShapeRK11btTransformS5_P17btCollisionObjectPK16btCollisionShapeS5_RNS_20ConvexResultCallbackEf
rma:__ZN5dmRig11SetMeshSlotEPNS_11RigInstanceEyy
Es:__ZN10dmResource20GetTypeFromExtensionEPNS_16SResourceFactoryEPKcPm
H_a:___cxa_is_pointer_type
Pha:_db_setmetatable
ISa:_sha224_clone_wrap
aT:__ZN22btVoronoiSimplexSolver5resetEv
eXa:_strchr
Mza:__ZN5dmGui17GetNodeParticlefxEPNS_5SceneEjRy
Axa:__ZN5dmGui13GetDisplayDpiEPNS_5SceneE
DSa:_sha224_update_wrap
Yu:__ZN12dmGameSystem28CompCollisionObjectOnMessageERKN12dmGameObject24ComponentOnMessageParamsE
K4a:_emscripten_glRenderbufferStorage__wrapper
mg:_emscripten_glVertexAttribI3i
fc:_emscripten_get_now
SP:__ZN22SphereTriangleDetectorC2EP13btSphereShapeP15btTriangleShapef
MWa:_vsnprintf
ck:FUNCTION_TABLE_vf
$j:FUNCTION_TABLE_vd
gk:FUNCTION_TABLE_vi
Gq:__ZN5dmDDF11SaveMessageEPKvPKNS_10DescriptorEPvPFbS5_S1_jE
hua:_VP8LDecodeImage
_5:__ZN8dmScript8Sys_SaveEP9lua_State
$N:__ZZN16btCollisionWorld13rayTestSingleERK11btTransformS2_P17btCollisionObjectPK16btCollisionShapeS2_RNS_17RayResultCallbackEEN29BridgeTriangleRaycastCallback9reportHitERK9btVector3fii
st:__ZN10dmResource11PreloadHintEPNS_15PreloadHintInfoEPKc
Kca:_lua_error
DLa:_mbedtls_ssl_sig_hash_set_init
W3:__ZN8dmScript13GetLuaGCCountEP9lua_State
C9:_meth_getfamily_7477
exa:_VerticalUnfilter
yIa:_mbedtls_rsa_pkcs1_encrypt
qqa:__ZN9dmMessage8ParseURLEPKcPNS_9StringURLE
QGa:_mbedtls_ctr_drbg_reseed
Wva:_UpsampleBgraLinePair
P0:__ZN8dmRender20RegisterRenderTargetEPNS_13RenderContextEPN10dmGraphics12RenderTargetEy
Ij:FUNCTION_TABLE_fiiifii
Wca:_lua_setlocal
Vla:__ZN10dmParticle20GetEmitterRenderDataEPNS_7ContextEjjPPNS_17EmitterRenderDataE
vQ:__ZN14btCapsuleShapeD0Ev
S:assert
Na:invoke_viiifii
$v:__ZN12dmGameSystem18CompGuiAddToUpdateERKN12dmGameObject26ComponentAddToUpdateParamsE
FT:__ZN26btBoxBoxCollisionAlgorithmD0Ev
zta:_CustomTeardown
fE:__ZN12dmGameSystemL19TileMap_SetConstantEP9lua_State
Ze:_emscripten_glRotatef
tEa:__ZN12dmLiveUpdateL23VerifyManifestSignatureEPN10dmResource8ManifestE
IJa:_tls_prf_get_type
sta:_VP8EnterCritical
Zva:_UpsampleRgb565LinePair
BB:__ZN12dmGameSystem20ResSpineModelPreloadERKN10dmResource21ResourcePreloadParamsE
kw:__ZN12dmGameSystem22GuiGetUserDataCallbackEPN5dmGui5SceneE
Be:_emscripten_glGetVertexAttribfv
oTa:_mbedtls_ssl_ciphersuite_from_id
Nv:__ZN12dmGameSystem13SetupGuiSceneEPN5dmGui5SceneEPNS_16GuiSceneResourceE
Hfa:_luaL_findtable
Kb:__arraySum
ana:__ZN8dmBuffer9GetStreamEjyPPvPjS2_S2_
oDa:__ZN5dmGuiL12LuaDoNewNodeEP9lua_StatePNS_5SceneEN10Vectormath3Aos6Point3ENS5_7Vector3ENS_8NodeTypeEPKcPv
MY:__ZN22b2EdgeAndCircleContact8EvaluateEP10b2ManifoldRK11b2TransformS4_
p6:__ZN8dmScriptL22Sys_SetUpdateFrequencyEP9lua_State
tza:__ZN5dmGui14SetNodeTextureEPNS_5SceneEjPKc
Ywa:_ALPHDelete
sP:__ZN25btSimulationIslandManager10findUnionsEP12btDispatcherP16btCollisionWorld
pCa:__ZN5dmGuiL11LuaGetPivotEP9lua_State
SE:__ZN10dmGraphics8FinalizeEv
wO:__ZN21btSingleSweepCallbackD0Ev
SY:__ZN23b2EdgeAndPolygonContact6CreateEP9b2FixtureiS1_iP16b2BlockAllocator
ji:_glfwGetJoystickHats
Gua:_HFilter8i
m8:__ZN8dmScript12CheckVector3EP9lua_Statei
Jt:__ZN12dmGameSystem10GuiContextC2Ev
kd:_emscripten_glDetachShader
vGa:__ZN7dmSound25PlatformIsPhoneCallActiveEv
TPa:_mbedtls_dhm_make_public
Wa:invoke_viiiiiiiif
USa:_sha512_starts_wrap
Cn:__ZN12dmGameObject6UpdateEPNS_16CollectionHandleEPKNS_13UpdateContextE
b1:__ZNSt3__215__inplace_mergeIRN8dmRender16RenderListSorterEPjEEvT0_S5_S5_T_NS_15iterator_traitsIS5_E15difference_typeES9_PNS8_10value_typeEl
IR:__ZN23btPolyhedralConvexShapeD0Ev
pca:_lua_pushthread
BRa:_ecp_mod_p224k1
goa:_dmHashUpdateBuffer64
h_:__Z22b2CollideEdgeAndCircleP10b2ManifoldPK11b2EdgeShapeRK11b2TransformPK13b2CircleShapeS6_
_Za:__ZN10__cxxabiv116__shim_type_infoD2Ev
fGa:_uint32_compare
ZN:__ZZN16btCollisionWorld13rayTestSingleERK11btTransformS2_P17btCollisionObjectPK16btCollisionShapeS2_RNS_17RayResultCallbackEEN29BridgeTriangleRaycastCallback9reportHitE_0RK9btVector3fii
C4:__ZN8dmScriptL10CopyStreamEP9lua_State
OB:__ZN12dmGameSystem17ResTexturePreloadERKN10dmResource21ResourcePreloadParamsE
sUa:_mbedtls_x509_get_time
Bf:_emscripten_glUniform1ui
GI:__ZN9dmPhysics19OverlapCacheAddDataC2Ev
DY:__ZN7b2TimerC2Ev
W1:__ZN8dmRender22RenderScript_PredicateEP9lua_State
dka:__ZN11dmExtension17GetFirstExtensionEv
xR:__ZNK21btConvexInternalShape7getAabbERK11btTransformR9btVector3S4_
Wm:__ZN12dmGameObject4InitEPNS_16CollectionHandleE
fP:__ZN16btEmptyAlgorithmC2ERK36btCollisionAlgorithmConstructionInfo
qOa:_add_pkcs_padding
_u:__ZN12dmGameSystem30CompCollisionObjectGetPropertyERKN12dmGameObject26ComponentGetPropertyParamsERNS0_12PropertyDescE
kN:__ZN21btCollisionDispatcher13needsResponseEP17btCollisionObjectS1_
uQ:__ZZN22btBvhTriangleMeshShape17performConvexcastEP18btTriangleCallbackRK9btVector3S4_S4_S4_EN21MyNodeOverlapCallback11processNodeEii
eZa:_isgraph
vTa:_ssl_parse_server_hello
Km:__ZN12dmGameObject13SetIdentifierEPNS_16CollectionHandleEPNS_8InstanceEy
Q6:__ZN8dmScript9ToVector3EP9lua_Statei
O9:_meth_setsockname
Vqa:__ZN8dmSocketL14NativeToResultEPKcii
cHa:_mbedtls_md5_init
mV:__ZN11b2EdgeShape3SetERK6b2Vec2S2_
VXa:_isalpha
roa:__ZN11dmHashTableIyN11dmHttpCache5EntryEE3PutEyRKS1_
mRa:_ecp_comb_recode_core
xia:_math_asin
HMa:_x509_profile_check_md_alg
Hza:__ZN5dmGui16GetNodeSpineSkinEPNS_5SceneEj
vA:__ZN12dmGameSystem18ResCreateSceneDescERKN10dmResource20ResourceCreateParamsE
cqa:__ZN9dmMessage9GetSocketEPKcPy
WKa:_ssl_buffer_future_record
vK:__ZN23btDiscreteDynamicsWorld18saveKinematicStateEf
SZa:__Znwm
Ama:__ZN5dmRig9GetCursorEPNS_11RigInstanceEb
Bja:_str_gsub
jO:__ZThn4_N17DebugDrawcallbackD0Ev
F8:_bit_arshift
ZBa:__ZN5dmGuiL13LuaSetTextureEP9lua_State
tj:_time
hG:__ZN10dmGraphics15SetRenderTargetEPNS_7ContextEPNS_12RenderTargetEj
Jpa:__ZN7dmImage13BytesPerPixelENS_4TypeE
VH:__ZN9dmPhysics11StepWorld3DEPNS_7World3DERKNS_16StepWorldContextE
Y4a:_emscripten_glUniform4i__wrapper
Ob:__inet_pton4_raw
JUa:_mbedtls_camellia_setkey_enc
E2:__GLOBAL__sub_I_font_ddf_cpp
rl:__ZL18UnregisterCallbackP9lua_StateP15JsToDefListener
ala:__ZN7dmInput12UpdateActionEPvPKyPNS_6ActionE
Lga:_luaX_next
Bha:_getfunc
LAa:__ZN5dmGuiL22SetDirtyLocalRecursiveEPNS_5SceneEj
LNa:_mbedtls_mpi_add_mpi
MEa:__ZN12dmDeviceNull15DeviceNullCloseEPv
Ae:_emscripten_glGetVertexAttribPointerv
iMa:_x509_crt_parse_der_core
s2:__ZN11dmHashTableIyPN8dmRender8MaterialEE11SetCapacityEjj
F4:__ZN8dmScriptL9Stream_gcEP9lua_State
HK:__ZN34btClosestNotMeConvexResultCallbackD0Ev
b5:__ZN8dmScript9CheckHashEP9lua_Statei
Np:__ZN12dmGameObject16ResScriptPreloadERKN10dmResource21ResourcePreloadParamsE
EIa:_mem_move_to_left
MA:__ZN12dmGameSystem19ResMaterialRecreateERKN10dmResource22ResourceRecreateParamsE
v2a:_emscripten_glBindRenderbuffer__wrapper
COa:_mbedtls_cipher_update
KA:__ZN12dmGameSystemL24ResourceReloadedCallbackERKN10dmResource22ResourceReloadedParamsE_2872
H2a:_emscripten_glBindProgramARB__wrapper
OZa:__get_tzname
dF:__ZN10dmGraphics18PostDeleteTexturesEb
wo:__ZN12dmGameObject15CompScriptWorldC2Ej
tLa:_mbedtls_ssl_write_finished
Ra:invoke_viiiii
jla:__ZN10dmParticle14CreateInstanceEPNS_7ContextEPNS_9PrototypeEPNS_23EmitterStateChangedDataE
gp:__ZN12dmGameObjectL25ScriptInstanceResolvePathEP9lua_State
Hna:__ZN5dmDNS14RefreshChannelEPNS_7ChannelE
gMa:_mbedtls_x509_crt_parse_der_internal
rr:__ZN5dmDDF7Message22AllocateRepeatedBufferEPNS_11LoadContextEPKNS_15FieldDescriptorEi
sla:__ZN10dmParticle17ApplyAccelerationER7dmArrayINS_8ParticleEEPNS_8PropertyERKN10Vectormath3Aos4QuatEfff
lV:__ZNK11b2EdgeShape11ComputeMassEP10b2MassDataf
STa:_ssl_parse_renegotiation_info
tx:__ZN12dmGameSystem25CompParticleFXDeleteWorldERKN12dmGameObject26ComponentDeleteWorldParamsE
hta:_jsmn_parse
bba:_opt_get_reuseaddr
YJ:__ZN23btDiscreteDynamicsWorld13addConstraintEP17btTypedConstraintb
sxa:__ZN5dmGui11InputActionC2Ev
Y1:__ZN8dmRender28RenderScript_DisableMaterialEP9lua_State
vWa:___bswap_16_79
mWa:_htonl
PW:__ZN15b2RevoluteJoint11EnableMotorEb
vD:__ZN12dmLiveUpdate22Resource_StoreManifestEP9lua_State
vw:__ZN12dmObjectPoolIN12dmGameSystem14LabelComponentEE5AllocEv
G:Math_asin
_$:__ZN8dmRender20ApplyMaterialSamplerEPNS_13RenderContextEPNS_8MaterialEjPN10dmGraphics7TextureE
I_:__ZN15b2ContactSolver27SolveTOIPositionConstraintsEii
Zw:__ZN12dmGameSystemL21CompModelPoseCallbackEPvS0_
Lp:__ZN12dmGameObject19ResPrototypeDestroyERKN10dmResource21ResourceDestroyParamsE
ZKa:_mbedtls_ssl_read_version
XB:__ZN12dmGameSystem20ResTextureSetDestroyERKN10dmResource21ResourceDestroyParamsE
mr:__ZN5dmDDF7Message9SetStringEPNS_11LoadContextEPKNS_15FieldDescriptorEPKci
eD:__ZN12dmGameSystemL30Physics_GetJointReactionTorqueEP9lua_State
qX:__ZN6b2Body9SetActiveEb
M3a:_emscripten_glGetProgramiv__wrapper
pi:_glfwGetMouseWheel
Gy:__ZN12dmGameSystem21CompSpriteDeleteWorldERKN12dmGameObject26ComponentDeleteWorldParamsE
Vra:__ZN8dmThread11SetTlsValueEjPv
Uq:__ZN5dmDDF11InputBuffer4ReadEiPPKc
uCa:__ZN5dmGuiL12LuaSetSlice9EP9lua_State
BU:__ZN15btGjkConvexCastD0Ev
ZK:__ZN11btRigidBody26predictIntegratedTransformEfR11btTransform
p:undef
$fa:_luaK_jump
Si:_llvm_floor_f64
AJ:__ZN35btSequentialImpulseConstraintSolver28solveGroupCacheFriendlySetupEPP17btCollisionObjectiPP20btPersistentManifoldiPP17btTypedConstraintiRK19btContactSolverInfoP12btIDebugDrawP12btStackAlloc
VA:__ZN12dmGameSystemL16ReleaseResourcesEPN10dmResource16SResourceFactoryEPNS_13ModelResourceE
PLa:_mbedtls_ssl_handshake
v0a:_emscripten_glGetString__wrapper
i3:__ZN8dmScript5UnrefEP9lua_Stateii
pTa:_ciphersuite_is_removed
O_a:___udivmoddi4
rO:__ZZN16btCollisionWorld17objectQuerySingleEPK13btConvexShapeRK11btTransformS5_P17btCollisionObjectPK16btCollisionShapeS5_RNS_20ConvexResultCallbackEfEN32BridgeTriangleConvexcastCallbackD0E_0v
pJ:__ZN9dmPhysics18OverlapCacheRemoveEPNS_12OverlapCacheEPv
pma:__ZN5dmRig7GetMeshEPNS_11RigInstanceE
p7:__ZN8dmScriptL9LengthSqrEP9lua_State
ota:_VP8ProcessRow
vDa:__ZN5dmGuiL26GuiScriptInstance_newindexEP9lua_State
ZSa:_mbedtls_oid_get_sig_alg
vJa:_mbedtls_ssl_session_free
jha:_luaB_getfenv
hq:__ZN12dmGameObject18CompScriptNewWorldERKNS_23ComponentNewWorldParamsE
WB:__ZN12dmGameSystem19ResTextureSetCreateERKN10dmResource20ResourceCreateParamsE
c1:__ZNSt3__224__buffered_inplace_mergeIRN8dmRender16RenderListSorterEPjEEvT0_S5_S5_T_NS_15iterator_traitsIS5_E15difference_typeES9_PNS8_10value_typeE
Az:__ZN12dmGameSystem16ResCameraDestroyERKN10dmResource21ResourceDestroyParamsE
hN:__ZN21btCollisionDispatcher15releaseManifoldEP20btPersistentManifold
IK:__ZNK34btClosestNotMeConvexResultCallback14needsCollisionEP17btBroadphaseProxy
Gfa:_luaL_openlib
cXa:___towrite
Jfa:_luaL_prepbuffer
LQa:_mbedtls_ecp_group_copy
sAa:__ZN5dmGui18SetNodeInnerRadiusEPNS_5SceneEjf
JWa:___stpcpy
Xs:__ZN17dmResourceArchive22WriteResourceToArchiveERPNS_21ArchiveIndexContainerEPKhmRjS5_
X7:__ZN8dmScriptL16Vector3_tostringEP9lua_State
J1:__ZN8dmRender25RenderScript_SetBlendFuncEP9lua_State
D5:__ZN8dmScript7LuaLoadEP9lua_StatePN8dmLuaDDF9LuaSourceE
l1:__ZN11dmHashTableIyN10Vectormath3Aos7Vector4EE3PutEyRKS2_
Au:__ZN12dmGameSystem17GetWorldTransformEPvRN11dmTransform9TransformE
IMa:_x509_crt_check_ee_locally_trusted
Ksa:__tr_stored_block
uva:_VP8LConvertFromBGRA
Cm:__ZN12dmGameObject11NewInstanceEPNS_10CollectionEPNS_9PrototypeEPKc
jf:_emscripten_glTexCoordPointer
FH:__ZN9dmPhysics12GetGravity2DEPNS_7World2DE
yW:__ZNK16b2PrismaticJoint14IsMotorEnabledEv
eaa:_socket_gethostbyname
h1a:_emscripten_glDepthRange__wrapper
_fa:_luaK_codeABC
W$:__ZN11dmHashTableIyiE11SetCapacityEjj
d2:__ZN8dmRenderL26RenderScriptInstance_indexEP9lua_State
Bfa:_luaL_checkinteger
zSa:_sha1_ctx_free
dh:_glCompressedTexImage2D
qu:__ZN12dmGameSystem26CompCollectionProxyDestroyERKN12dmGameObject22ComponentDestroyParamsE
fta:__ZN16dmConnectionPool8ShutdownEPNS_14ConnectionPoolEN8dmSocket12ShutdownTypeE
F_:__ZN15b2ContactSolver13StoreImpulsesEv
aga:_luaK_codeABx
PR:__ZN34btPolyhedralConvexAabbCachingShape15recalcLocalAabbEv
VS:__ZNK15btTriangleShape8isInsideERK9btVector3f
Bga:_luaK_infix
NN:__ZN16btCollisionWorld9serializeEP12btSerializer
apa:__ZN12dmHttpClientL12HandleHeaderEPvPKcS2_
hM:__ZN16btDbvtBroadphase8aabbTestERK9btVector3S2_R24btBroadphaseAabbCallback
YFa:_decode_residue
CF:__ZN10dmGraphics20NewVertexDeclarationEPNS_7ContextEPNS_13VertexElementEjj
jVa:_chachapoly_pad_aad
wVa:_poly1305_compute_mac
pQ:__ZN22btBvhTriangleMeshShape14performRaycastEP18btTriangleCallbackRK9btVector3S4_
At:__ZN10dmResource20MountArchiveInternalEPKcS1_S1_PPN17dmResourceArchive21ArchiveIndexContainerEPPv
LM:__ZN28btHashedOverlappingPairCache26getOverlappingPairArrayPtrEv
yQ:__ZNK14btCapsuleShape21calculateLocalInertiaEfR9btVector3
IY:__ZN9b2ContactC2EP9b2FixtureiS1_i
dda:_luaG_aritherror
YB:__ZN12dmGameSystem21ResTextureSetRecreateERKN10dmResource22ResourceRecreateParamsE
zMa:_mbedtls_x509_crt_check_extended_key_usage
JB:__ZN12dmGameSystem17ResSpriteRecreateERKN10dmResource22ResourceRecreateParamsE
Sua:_VL4
d$a:dynCall_dii
CZ:__ZN13b2PulleyJointD0Ev
lF:__ZN10dmGraphics14GetWindowWidthEPNS_7ContextE
Yq:__ZN5dmDDF11InputBuffer11ReadFixed32EPj
Vy:__ZN12dmGameSystemL29CompSpriteGetConstantCallbackEPvyPPN8dmRender8ConstantE
IUa:_mbedtls_camellia_free
hfa:_luaV_execute
hva:_FilterLoop24
iva:_FilterLoop26
s8:__ZN8dmScript12CheckMatrix4EP9lua_Statei
wI:__ZN9dmPhysics12GetGravity3DEPNS_7World3DE
oPa:_camellia_ctx_free
ql:__ZL14RemoveListenerP9lua_State
wY:__ZN20b2SeparationFunction10InitializeEPK14b2SimplexCachePK15b2DistanceProxyRK7b2SweepS5_S8_f
Q_a:___uremdi3
Rt:__ZN12dmGameSystem13OnWindowFocusEb
_m:__ZN12dmGameObject17AcquireInputFocusEPNS_10CollectionEPNS_8InstanceE
vfa:_luaL_checkudata
Ye:_emscripten_glRenderbufferStorageMultisample
Wo:__ZN12dmGameObject23Script_CancelAnimationsEP9lua_State
D3a:_emscripten_glUniform1iv__wrapper
a_a:__ZNK10__cxxabiv116__shim_type_info5noop1Ev
Aia:_math_ceil
xVa:_emscripten_GetProcAddress
Pn:__ZN12dmGameObject8SetScaleEPNS_8InstanceEf
eR:__ZN17btConvexHullShapeD2Ev
HTa:_ssl_write_encrypted_pms
$pa:__ZN12dmMemProfile8FinalizeEv
mt:__ZN10dmResourceL14RemoveChildrenEPNS_17ResourcePreloaderEPNS_14PreloadRequestE
xWa:_isdigit
Vz:__ZN12dmGameSystem25ResDisplayProfilesDestroyERKN10dmResource21ResourceDestroyParamsE
Yd:_emscripten_glGetFloatv
E:Math_tan
jR:__ZNK17btConvexHullShape28calculateSerializeBufferSizeEv
Ua:invoke_viiiiiii
bF:__ZN10dmGraphics16SetTextureParamsEPNS_7TextureEjjjj
NG:__ZN9dmPhysics30ProcessRayCastResultCallback2DD0Ev
QC:__ZN12dmGameSystem27EmitterStateChangedCallbackEjyN10dmParticle12EmitterStateEPv
xi:_glfwOpenWindowHint
DGa:_DefaultSoundDevice
nia:_f_lines
oKa:_mbedtls_ssl_send_flight_completed
jx:__ZN12dmGameSystem18CompModelOnMessageERKN12dmGameObject24ComponentOnMessageParamsE
MKa:_ssl_buffer_make_space
RYa:___dup3
DOa:_mbedtls_cipher_get_block_size_12152
dg:_emscripten_glVertexAttribDivisor
S9:_socket_destroy
Q5:__ZN8dmScript6GetURLEP9lua_StatePN9dmMessage3URLE
Fu:__ZN12dmGameSystem25CompCollisionObjectCreateERKN12dmGameObject21ComponentCreateParamsE
sy:__ZN12dmGameSystem22CompSpineModelOnReloadERKN12dmGameObject23ComponentOnReloadParamsE
v_:__ZN24b2ChainAndPolygonContact7DestroyEP9b2ContactP16b2BlockAllocator
t0a:_emscripten_glGetError__wrapper
qQa:_ecdsa_sign_det_restartable
g5a:_emscripten_glVertexAttribIPointer__wrapper
Sxa:__ZN5dmGui12ClearLayoutsEPNS_5SceneE
Sv:__ZN12dmGameSystem14CompGuiDestroyERKN12dmGameObject22ComponentDestroyParamsE
FVa:_posix_memalign
FOa:_mbedtls_cipher_get_iv_size
PI:__ZN9dmPhysics11DebugDraw2D13DrawTransformERK11b2Transform
nua:_ApplyAlphaMultiply
wq:__ZN12dmGameObject21CompScriptSetPropertyERKNS_26ComponentSetPropertyParamsE
lpa:__ZL22stbi__YCbCr_to_RGB_rowPhPKhS1_S1_ii
dva:_HE8uv
zK:__ZN23btDiscreteDynamicsWorld14updateVehiclesEf
p4a:_emscripten_glUniform3i__wrapper
jTa:_pem_des_decrypt
Wf:_emscripten_glValidateProgram
Wua:_TM16
Q$:__ZN8dmRender6LayoutINS_13LayoutMetricsEEEjPKcfPNS_8TextLineEtPfT_
E7:__ZN8dmScriptL11Matrix4_mulEP9lua_State
P6:__ZN8dmScript8IsVectorEP9lua_Statei
K2a:_emscripten_glDeleteVertexArrays__wrapper
Tt:__GLOBAL__sub_I_comp_camera_cpp
s5:__ZN8dmScript11OnHttpErrorEPvi
_Ia:_mbedtls_sha1_finish_ret
Hta:_EmitFancyRGB
q3a:_emscripten_glGetTexParameterfv__wrapper
tOa:_get_one_and_zeros_padding
vs:__ZN10dmResource22VerifyResourcesBundledEPNS_16SResourceFactoryEPNS_8ManifestE
Rla:__ZN10dmParticle15DeletePrototypeEPNS_9PrototypeE
qR:__ZNK17btConvexHullShape7getEdgeEiR9btVector3S1_
oma:__ZN5dmRig12GetAnimationEPNS_11RigInstanceE
_6:__ZN8dmScriptL11Quat_FromToEP9lua_State
gHa:_mbedtls_internal_md5_process
hza:__ZN5dmGui11GetNodeTextEPNS_5SceneEj
YGa:_mbedtls_entropy_add_source
px:__ZN12dmGameSystem24CompModelGetNodeInstanceEPNS_14ModelComponentEj
mAa:__ZN5dmGui14GetNodeXAnchorEPNS_5SceneEj
VW:__ZNK15b2RevoluteJoint13GetUpperLimitEv
yc:_emscripten_glBlendFunc
QB:__ZN12dmGameSystem16ResTextureCreateERKN10dmResource20ResourceCreateParamsE
hT:__ZN22btVoronoiSimplexSolver14backup_closestER9btVector3
n1a:b28
rK:__ZN23btDiscreteDynamicsWorld19integrateTransformsEf
tG:__ZN10dmGraphics13EnableTextureEPNS_7ContextEjPNS_7TextureE
gu:__ZN12dmGameSystem27CompCollectionFactoryUpdateERKN12dmGameObject22ComponentsUpdateParamsERNS0_22ComponentsUpdateResultE
uJa:_mbedtls_net_free
yga:_luaK_indexed
mHa:_mbedtls_pk_info_from_type
hSa:_mbedtls_md_hmac_starts
ii:_glfwGetJoystickDeviceId
kha:_luaB_getmetatable
jN:__ZN21btCollisionDispatcher14needsCollisionEP17btCollisionObjectS1_
_na:_dmHashString32
s1:__ZN8dmRender24RenderScript_SetViewportEP9lua_State
Ila:__ZN10dmParticle14SetScaleAlongZEPNS_7ContextEjb
bTa:_oid_grp_id_from_asn1
tU:__ZN23btConvexConvexAlgorithm10CreateFuncC2EP22btVoronoiSimplexSolverP30btConvexPenetrationDepthSolver
xU:__ZN31btConvexPlaneCollisionAlgorithm21calculateTimeOfImpactEP17btCollisionObjectS1_RK16btDispatcherInfoP16btManifoldResult
mw:__ZN12dmGameSystem25GuiGetTextMetricsCallbackEPKvPKcfbffPN5dmGui11TextMetricsE
QZ:__ZN11b2WeldJoint24SolveVelocityConstraintsERK12b2SolverData
wIa:_mgf_mask
iY:__ZN12b2BroadPhase12DestroyProxyEi
r3a:_emscripten_glGetTexParameteriv__wrapper
Fxa:__ZN5dmGui23SetSceneAdjustReferenceEPNS_5SceneENS_15AdjustReferenceE
qJa:_mbedtls_net_init
Ck:FUNCTION_TABLE_viiiiiiii
O$a:dynCall_vii
i6:__ZN8dmScript14Sys_GetIfaddrsEP9lua_State
yQa:_mbedtls_ecdsa_free
_N:__ZZN16btCollisionWorld13rayTestSingleERK11btTransformS2_P17btCollisionObjectPK16btCollisionShapeS2_RNS_17RayResultCallbackEEN29BridgeTriangleRaycastCallbackD0Ev
vVa:_mbedtls_poly1305_finish
OLa:_mbedtls_ssl_handshake_step
xaa:_buffer_init
upa:__ZL26stbi__create_png_image_rawP9stbi__pngPhjijjii
A7:__ZN8dmScriptL10MulPerElemEP9lua_State
UAa:__ZN5dmGui10LuaGetNodeEP9lua_State
Hca:_lua_dump
fp:__ZN12dmGameObjectL25ScriptInstanceGetUserDataEP9lua_State
TRa:_mbedtls_gcm_free
oH:__ZN9dmPhysics22DeleteCollisionShape2DEPv
eu:__ZN12dmGameSystem28CompCollectionFactoryDestroyERKN12dmGameObject22ComponentDestroyParamsE
_X:__ZN21b2WorldRayCastWrapper15RayCastCallbackERK14b2RayCastInputi
Fca:_f_call
al:__ZN8dmEngineL11PerformStepEPv
qWa:_sendto
IJ:__ZN35btSequentialImpulseConstraintSolver22setupContactConstraintER18btSolverConstraintP17btCollisionObjectS3_R15btManifoldPointRK19btContactSolverInfoR9btVector3RfSB_SA_SA_
lD:__ZN12dmGameSystem21ScriptPhysicsFinalizeERKNS_16ScriptLibContextE
Iea:_luaH_next
_ta:_VP8LDelete
k:STACKTOP
Uxa:__ZN5dmGui5SceneD2Ev
kC:__ZN12dmGameSystem26CollectionFactoryComp_LoadEP9lua_State
nIa:_mbedtls_rsa_get_len
Fga:_luaX_init
G4:__ZN8dmScriptL15Stream_tostringEP9lua_State
d_a:__ZNK10__cxxabiv117__class_type_info16search_above_dstEPNS_19__dynamic_cast_infoEPKvS4_ib
Hk:stackAlloc
Tua:_HD4
iE:__ZN12dmGameSystemL15TileMap_GetTileEP9lua_State
u:tempBigIntS
jk:FUNCTION_TABLE_vifff
jqa:__ZN9dmMessage11HasMessagesEy
Sh:_glShaderSource
lra:__ZN8dmSocket12SelectorZeroEPNS_8SelectorE
_Ya:_tolower
Sp:__GLOBAL__sub_I_lua_ddf_cpp
E$:__ZN8dmRender7FontMapD2Ev
noa:_dmHashReverseSafe64
JQ:__ZNK16btCollisionShape20getAngularMotionDiscEv
XW:__ZNK11b2RopeJoint10GetAnchorAEv
D0a:_emscripten_glIsVertexArray__wrapper
rD:__ZN12dmGameSystem22ScriptResourceFinalizeERKNS_16ScriptLibContextE
WR:__ZN13btSphereShape9setMarginEf
Sd:_emscripten_glGetAttachedShaders
xO:__ZN21btSingleSweepCallback7processEPK17btBroadphaseProxy
Jea:_luaH_resizearray
kK:__ZNK23btDiscreteDynamicsWorld12getWorldTypeEv
hn:__ZN12dmGameObject13GetIdentifierEPNS_8InstanceE
PJa:_ssl_read_memory
yma:__ZNK8dmRigDDF10EventTrackUt_ixEj
ica:_lua_pushlstring
i1:__ZN8dmRender26EnableRenderObjectConstantEPNS_12RenderObjectEyRKN10Vectormath3Aos7Vector4E
Nza:__ZN5dmGui11GetNodeFontEPNS_5SceneEj
QF:__ZN10dmGraphics21ReloadFragmentProgramEmPNS_10ShaderDesc6ShaderE
dba:_opt_set_tcp_nodelay
GPa:_des3_set2key
W8:_tcp_create
hea:_close_func
UG:__ZN9dmPhysics15ContactListener9PostSolveEP9b2ContactPK16b2ContactImpulse
Kza:__ZN5dmGuiL17FindBoneChildNodeEPNS_5SceneEPNS_12InternalNodeERj
j5a:_emscripten_glUniform4ui__wrapper
Xr:__ZN10dmResource16BytesToHexStringEPKhjPcj
om:__ZN12dmGameObject16AttachCollectionEPNS_10CollectionEPKcPN10dmResource16SResourceFactoryEPNS_8RegisterEPNS_16CollectionHandleE
S7:__ZN8dmScriptL11Vector4_mulEP9lua_State
KMa:_x509_name_cmp
qA:__ZN12dmGameSystem19ResDestroyGuiScriptERKN10dmResource21ResourceDestroyParamsE
Tga:_ipairsaux
BYa:_fmod
w4:__ZN8dmScript14SetStreamValueItEEvPvid
Tya:__ZN5dmGui11GetNodeByIdEPNS_5SceneEy
OO:__ZN34btSphereTriangleCollisionAlgorithm10CreateFuncD0Ev
bia:_io_output
CD:__ZN12dmGameSystemL18Sound_GetGroupGainEP9lua_State
sva:_VP8LConvertBGRAToRGB565_C
Dq:__ZN5dmDDF11LoadMessageEPKvjPKNS_10DescriptorEPPvjPj
rMa:_x509_get_subject_alt_name
MT:__Z8dBoxBox2RK9btVector3PKfS1_S1_S3_S1_RS_PfPiiP12dContactGeomiRN36btDiscreteCollisionDetectorInterface6ResultE
yWa:_inet_pton
Ji:_glfwSwapBuffers
y7:__ZN8dmScriptL7InverseEP9lua_State
DTa:_mbedtls_ssl_ciphersuite_cert_req_allowed
Xl:__ZN11dmHashTableIyPN12dmGameObject8InstanceEE3PutEyRKS2_
Q2a:_emscripten_glDrawBuffers__wrapper
LKa:_ssl_get_reassembly_buffer_size
Zv:__ZN12dmGameSystem14RenderPieNodesEPN5dmGui5SceneEPKNS0_11RenderEntryEPKN10Vectormath3Aos7Matrix4EPKfPPKNS0_12StencilScopeEjPv
Py:__ZN12dmGameSystem16CompSpriteRenderERKN12dmGameObject22ComponentsRenderParamsE
XFa:_codebook_decode_scalar_raw
lh:_glDeleteRenderbuffers
Ig:_gai_strerror
qw:__ZN12dmGameSystem17CompLabelNewWorldERKN12dmGameObject23ComponentNewWorldParamsE
TP:__ZN10btBoxShapeD0Ev
Eqa:__GLOBAL__sub_I_profile_cpp
Mh:_glGetUniformLocation
Sc:_emscripten_glCompileShader
JKa:_mbedtls_ssl_handle_message_type
d0:__ZN8dmRender26GetMaterialProgramConstantEPNS_8MaterialEyRNS_8ConstantE
fha:_luaB_collectgarbage
wDa:__ZN5dmGuiL23GuiScriptInstanceGetURLEP9lua_State
VJ:__ZN23btDiscreteDynamicsWorld21removeCollisionObjectEP17btCollisionObject
iYa:_feof
cQ:__ZNK10btBoxShape37localGetSupportingVertexWithoutMarginERK9btVector3
mKa:_ssl_free_buffered_record
qBa:__ZN5dmGui26SetDefaultNewContextParamsEPNS_16NewContextParamsE
sya:__ZNSt3__26__sortIRN5dmGui19RenderEntrySortPredEPNS1_11RenderEntryEEEvT0_S6_T_
$b:_dmScriptHttpRequestAsync
v7:__ZN8dmScriptL4ConjEP9lua_State
zq:__ZN11dmHashTableIyPKN5dmDDF10DescriptorEE3PutEyRKS3_
zua:_VFilter16
aE:__ZN12dmGameSystem19SpriteComp_SetScaleEP9lua_State
Kq:__ZN5dmDDF9SkipFieldEPNS_11InputBufferEj
dD:__ZN12dmGameSystemL29Physics_GetJointReactionForceEP9lua_State
ml:_jstodef
kJ:__ZN9dmPhysics16OverlapCacheInitEPNS_12OverlapCacheE
Gz:__ZN12dmGameSystem27ResCollectionFactoryDestroyERKN10dmResource21ResourceDestroyParamsE
B1:__ZN8dmRender33RenderScript_GetRenderTargetWidthEP9lua_State
UW:__ZNK15b2RevoluteJoint13GetLowerLimitEv
UA:__ZN12dmGameSystem14ResModelCreateERKN10dmResource20ResourceCreateParamsE
S3:__ZN8dmScriptL13PCallInternalEP9lua_Stateiii
HM:__ZN28btHashedOverlappingPairCacheD0Ev
Fea:_luaS_resize
qHa:_pk_hashlen_helper
nY:__ZN13b2DynamicTreeD2Ev
os:__ZN10dmResource23ReleaseBuiltinsManifestEPNS_16SResourceFactoryE
NQ:__ZNK16btCollisionShape20serializeSingleShapeEP12btSerializer
Pja:_writer
SEa:_NullSoundDevice
TEa:__GLOBAL__sub_I_sound_cpp
ar:__ZN5dmDDF11InputBuffer9ReadInt32EPi
SBa:__ZN5dmGuiL18LuaGetClippingModeEP9lua_State
Pp:__ZN12dmGameObject16ResScriptDestroyERKN10dmResource21ResourceDestroyParamsE
XVa:___mo_lookup
eKa:_ssl_get_current_mtu
l6:__ZN8dmScriptL23Sys_SetConnectivityHostEP9lua_State
WUa:_mbedtls_ccm_auth_decrypt
Dg:_emscripten_run_script_string
bB:__ZN12dmGameSystem21ResParticleFXRecreateERKN10dmResource22ResourceRecreateParamsE
B:Math_pow
e_:__ZN8b2Island8SolveTOIERK10b2TimeStepii
VO:__ZN28btCompoundCollisionAlgorithm17SwappedCreateFunc24CreateCollisionAlgorithmER36btCollisionAlgorithmConstructionInfoP17btCollisionObjectS4_
ip:__ZN12dmGameObjectL32ScriptGetInstanceContextTableRefEP9lua_State
Jka:__ZN5dmHID6UpdateEPNS_7ContextE
Kd:_emscripten_glGenVertexArrays
tg:_emscripten_glVertexAttribI4sv
rH:__ZN9dmPhysicsL18TransformCopyShapeEPNS_9Context2DEPK7b2ShapeRKN10Vectormath3Aos7Vector3ERKNS6_4QuatEf
kKa:_ssl_flight_free
eba:_opt_get_tcp_nodelay
lZa:_strcasecmp
aC:__ZN12dmGameSystem17ResTileGridCreateERKN10dmResource20ResourceCreateParamsE
oP:__ZN25btSimulationIslandManagerD2Ev
EGa:__ZN12dmSoundCodec3NewEPKNS_21NewCodecContextParamsE
BGa:__ZN10dmDeviceJS13DeviceJSStartEPv
qQ:__ZZN22btBvhTriangleMeshShape14performRaycastEP18btTriangleCallbackRK9btVector3S4_EN21MyNodeOverlapCallbackD0Ev
mma:__ZN5dmRig15SetPlaybackRateEPNS_11RigInstanceEf
tK:__ZN23btDiscreteDynamicsWorld16solveConstraintsER19btContactSolverInfo
LCa:__ZN5dmGuiL17LuaSetRenderOrderEP9lua_State
taa:_auxiliar_checkclass
yY:__ZNK20b2SeparationFunction8EvaluateEiif
da:invoke_fiiiiiiiiiii
I0:__ZN8dmRender16GetScriptContextEPNS_13RenderContextE
M0:__ZN8dmRender16RenderListSubmitEPNS_13RenderContextEPNS_15RenderListEntryES3_
qva:_VP8LConvertBGRAToRGBA_C
G9:_meth_receive_7485
XSa:_oid_x509_ext_from_asn1
wla:__ZN10dmParticle11ApplyVortexER7dmArrayINS_8ParticleEEPNS_8PropertyERKN10Vectormath3Aos6Point3ERKNS7_4QuatEfff
Rca:_lua_gethook
y1a:_emscripten_glCompileShader__wrapper
V1a:_emscripten_glActiveTexture__wrapper
Nd:_emscripten_glGetActiveUniform
Aj:emscriptenWebGLGetVertexAttrib
DHa:_rsa_decrypt_wrap
Xfa:_luaL_openlibs
LFa:_AudioDecoderStbVorbis
Ix:__ZN12dmGameSystem11SetPropertyEyRKN12dmGameObject11PropertyVarERN10Vectormath3Aos7Vector4ERKNS_11PropVector4E
cQa:_ecdh_setup_internal
Vua:_DC16
YG:__ZN9dmPhysics11GetSocket2DEPNS_9Context2DE
uS:__ZZN33btMinkowskiPenetrationDepthSolver12calcPenDepthER22btVoronoiSimplexSolverPK13btConvexShapeS4_RK11btTransformS7_R9btVector3S9_S9_P12btIDebugDrawP12btStackAllocEN20btIntermediateResult20setShapeIdentifiersAEii
Rc:_emscripten_glColorPointer
h0:__ZN8dmRender27GetMaterialConstantLocationEPNS_8MaterialEy
sqa:__ZN7dmMutex6DeleteEPNS_5MutexE
DR:__ZN13btConvexShapeD0Ev
Rma:__ZN11dmArrayUtil11SetCapacityEjjPmS0_S0_
ZF:__ZN10dmGraphics14GetUniformNameEmjPcjPj
$L:__ZN15btNullPairCache20sortOverlappingPairsEP12btDispatcher
csa:__ZN6dmUtf86ToUtf8EtPc
gSa:_mbedtls_md
RM:__ZN28btHashedOverlappingPairCache24setOverlapFilterCallbackEP23btOverlapFilterCallback
bf:_emscripten_glShaderSource
cl:__ZN8dmEngine9RunResult4FreeEv
AVa:_calloc
CBa:__ZN5dmGui15LuaGetSpineSkinEP9lua_State
gT:__ZN22btVoronoiSimplexSolver9inSimplexERK9btVector3
xm:__ZNSt3__27__sort4IRN12dmGameObject21ComponentTypeSortPredEPtEEjT0_S5_S5_S5_T_
SFa:_start_page
SDa:__ZN7dmCrash21GetBacktraceAddrCountEi
nya:__ZN5dmGui9SetLayoutEPNS_5SceneEyPFvS1_jPKvE
Bh:_glGenRenderbuffers
Pu:__ZN12dmGameSystemL9BroadCastIN12dmPhysicsDDF20ContactPointResponseEEEvPT_PN12dmGameObject8InstanceEyt
_Va:_strerror
fTa:_mbedtls_pem_init
Xoa:__ZN12dmHttpClientL7SendAllEPNS_8ResponseEPKci
RZ:__ZN11b2WeldJoint24SolvePositionConstraintsERK12b2SolverData
Xp:__ZN12dmGameObject19CompAnimDeleteWorldERKNS_26ComponentDeleteWorldParamsE
l2a:_emscripten_glGetIntegerv__wrapper
NHa:_eckey_check_pair
Tna:__ZN11dmHashTableIy16ReverseHashEntryE11SetCapacityEjj
qs:__ZN10dmResourceL8DispatchEPN9dmMessage7MessageEPv
JTa:_ssl_parse_server_psk_hint
IA:__ZN12dmGameSystem11SetMaterialEPN8dmRender8MaterialEPN11dmRenderDDF12MaterialDescEPNS_17MaterialResourcesE
C0:__ZN8dmRender12RenderObject14ClearConstantsEv
m7:__ZN8dmScriptL17Matrix4_RotationZEP9lua_State
$Pa:_mbedtls_ecdh_init
OP:__ZN36btDiscreteCollisionDetectorInterfaceD2Ev
qO:__ZZN16btCollisionWorld17objectQuerySingleEPK13btConvexShapeRK11btTransformS5_P17btCollisionObjectPK16btCollisionShapeS5_RNS_20ConvexResultCallbackEfEN14LocalInfoAdder15addSingleResultERNS_17LocalConvexResultEb
kea:_check_match
sCa:__ZN5dmGuiL12LuaGetHeightEP9lua_State
wfa:_luaL_checkstack
wu:__ZN12dmGameSystem29CompCollectionProxyPostUpdateERKN12dmGameObject26ComponentsPostUpdateParamsE
xr:__ZN5dmDDF11LoadContext13AllocRepeatedEPKNS_15FieldDescriptorEi
Lna:__Z8dmStrTokPcPKcPS_
yR:__ZN21btConvexInternalShape15setLocalScalingERK9btVector3
EP:__ZN34btSphereTriangleCollisionAlgorithmD0Ev
Yt:__ZN12dmGameSystem21CompCameraAddToUpdateERKN12dmGameObject26ComponentAddToUpdateParamsE
IPa:_mbedtls_des3_set3key_enc
MPa:_mbedtls_des_crypt_cbc
TT:__ZN28btCompoundCollisionAlgorithm22getAllContactManifoldsER20btAlignedObjectArrayIP20btPersistentManifoldE
$V:__ZNK7b2Mat337Solve33ERK6b2Vec3
gd:_emscripten_glDepthFunc
zca:_lua_rawset
BXa:_inet_ntoa
ZP:__ZN10btBoxShape9setMarginEf
lY:__ZN12b2BroadPhase13QueryCallbackEi
cB:__ZN12dmGameSystem24ResourceReloadedCallbackERKN10dmResource22ResourceReloadedParamsE
PSa:_sha384_wrap
Iha:_db_getlocal
Aoa:__ZN11dmHttpCache3EndEPNS_5CacheEPNS_12CacheCreatorE
dI:__ZN9dmPhysics22DeleteCollisionShape3DEPv
iu:__ZN12dmGameSystem25CompCollectionFactoryLoadEPN12dmGameObject16CollectionHandleEPNS_26CollectionFactoryComponentE
wKa:_ssl_hs_is_proper_fragment
US:__ZNK15btTriangleShape8getPlaneER9btVector3S1_i
NJ:__ZN35btSequentialImpulseConstraintSolver43resolveSplitPenetrationImpulseCacheFriendlyER11btRigidBodyS1_RK18btSolverConstraint
xh:_glFramebufferRenderbuffer
JFa:__ZN12dmSoundCodec21StbVorbisSkipInStreamEPvjPj
oa:invoke_iiiiiiiii
IRa:_ecp_mpi_load
lya:__ZN5dmGui14GetLayoutIndexEPNS_5SceneEy
bv:__ZN12dmGameSystem7RayCastEPvRKN9dmPhysics14RayCastRequestERNS1_15RayCastResponseE
bE:__ZN12dmGameSystem23SpriteComp_PlayFlipBookEP9lua_State
jc:_emscripten_glBeginConditionalRender
Pka:__ZN7dmInput10NewContextERKNS_16NewContextParamsE
U8:_global_create6
cZ:__ZN25b2PolygonAndCircleContact6CreateEP9b2FixtureiS1_iP16b2BlockAllocator
Nwa:_Sync
kca:_lua_pushvfstring
Vka:__ZN7dmInput10SetBindingEPNS_7BindingEPN10dmInputDDF12InputBindingE
EV:__ZNK14b2PolygonShape13GetChildCountEv
ZX:__ZNK13b2DynamicTree7RayCastI21b2WorldRayCastWrapperEEvPT_RK14b2RayCastInput
_K:__ZN11btRigidBody18saveKinematicStateEf
$2a:_emscripten_glVertexAttribI1uiv__wrapper
KGa:__ZN12dmSoundCodec5ResetEPNS_12CodecContextEPNS_7DecoderE
BEa:__ZN12dmLiveUpdate8FinalizeEv
$ba:_lua_tolstring
aza:__ZN5dmGui15SetNodePositionEPNS_5SceneEjRKN10Vectormath3Aos6Point3E
Qe:_emscripten_glLoadMatrixf
UKa:_mbedtls_ssl_in_hdr_len
w4a:_emscripten_glGetShaderInfoLog__wrapper
qXa:___bswap_16
Qza:__ZN5dmGui11SetNodeFontEPNS_5SceneEjPKc
T4a:_emscripten_glUniform3ui__wrapper
zOa:_mbedtls_cipher_setkey
gKa:_mbedtls_ssl_get_record_expansion
Yw:__ZN12dmGameSystemL16DestroyComponentEPNS_10ModelWorldEj
Iwa:_VP8LHtreeGroupsFree
eo:__ZN12dmGameObject23UnloadPropertyResourcesEPN10dmResource16SResourceFactoryER7dmArrayIPvE
zNa:_mbedtls_clz
fZ:__ZN16b2PolygonContactD0Ev
HIa:_mbedtls_rsa_rsassa_pkcs1_v15_sign
pqa:__ZN9dmMessageL15ConsumeCallbackEPNS_7MessageEPv
Ja:invoke_viififfi
s1a:_emscripten_glClearColor__wrapper
mJa:_mbedtls_internal_sha512_process
wg:_emscripten_glVertexAttribI4uiv
n$a:dynCall_i
oQa:_ecdsa_sign_restartable
VBa:__ZN5dmGuiL21LuaSetClippingVisibleEP9lua_State
nMa:_x509_get_crt_ext
RNa:_mbedtls_mpi_div_mpi
VD:__ZN12dmGameSystem23SpineComp_ResetConstantEP9lua_State
GL:__ZN20btAxisSweep3InternalItE9sortMinUpEitP12btDispatcherb
$y:__ZN12dmGameSystem20GetTileGridCellCoordEPKNS_17TileGridComponentEiiRiS3_
Yz:__ZN12dmGameSystem17ResEmitterDestroyERKN10dmResource21ResourceDestroyParamsE
bX:__ZN11b2RopeJoint23InitVelocityConstraintsERK12b2SolverData
Xe:_emscripten_glRenderbufferStorage
x7:__ZN8dmScriptL7ProjectEP9lua_State
oea:_adjust_assign
Va:invoke_viiiiiiii
oK:__ZN23btDiscreteDynamicsWorld12addCharacterEP17btActionInterface
pSa:_md5_update_wrap
Ei:_glfwSetWindowCloseCallback
xM:__ZN6btDbvt8ICollide9AllLeavesEPK10btDbvtNode
nxa:_glfwGetTouch
TK:__ZNK11btRigidBody21serializeSingleObjectEP12btSerializer
xn:__ZN12dmGameObject11GetRotationEPNS_8InstanceE
y8:_bit_tobit
Tpa:__Z13dmLogInternal13dmLogSeverityPKcS1_z
LJ:__ZN35btSequentialImpulseConstraintSolver23setupFrictionConstraintER18btSolverConstraintRK9btVector3P11btRigidBodyS6_R15btManifoldPointS4_S4_P17btCollisionObjectSA_fff
SQ:__ZN15btCompoundShape15setLocalScalingERK9btVector3
t1:__ZN8dmRender25RenderScript_RenderTargetEP9lua_State
FCa:__ZN5dmGuiL8LuaCloneEP9lua_State
uua:_TransformTwo
A0a:_emscripten_glIsShader__wrapper
C3a:_emscripten_glUniform2i__wrapper
d3:__ZN8dmScript9SetGlobalEP9lua_StatePKc
sRa:_ecp_check_pubkey_sw
GD:__ZN12dmGameSystemL10Sound_PlayEP9lua_State
RTa:_ssl_validate_ciphersuite
Nq:__ZN5dmDDF13DoSaveMessageEPKvPKNS_10DescriptorEPvPFbS5_S1_jE
_G:__ZN9dmPhysics13DeleteWorld2DEPNS_9Context2DEPNS_7World2DE
H4a:_emscripten_glViewport__wrapper
Qo:__ZN12dmGameObject24Script_GetWorldTransformEP9lua_State
c4a:_emscripten_glTexParameterIiv__wrapper
Cza:__ZN5dmGui17SetNodeAdjustModeEPNS_5SceneEjNS_10AdjustModeE
vra:__ZN12dmStringPool6DeleteEPNS_4PoolE
pua:_DispatchAlpha
E1:__ZN8dmRender17RenderScript_DrawEP9lua_State
Dda:_luaF_freeproto
TVa:___DOUBLE_BITS_754
IKa:_ssl_get_next_record
G4a:_emscripten_glDrawArraysInstanced__wrapper
w5a:_emscripten_glCopyTexImage2D__wrapper
rsa:_WebPRescalerImport
Lra:__ZN5dmSys13GetEngineInfoEPNS_10EngineInfoE
N1a:_emscripten_glDisable__wrapper
Paa:_inet_pushresolved
xha:_luaB_tostring
FB:__ZN12dmGameSystem16AcquireResourcesEPN10dmResource16SResourceFactoryEPNS_14SpriteResourceEPKc
Oqa:__ZN9dmProfile14AllocateSampleEv
ob:___syscall122
XLa:_mbedtls_ssl_close_notify
vaa:_auxiliar_setclass
gn:__ZN12dmGameObject13SetIdentifierEPNS_10CollectionEPNS_8InstanceEPKc
yPa:_mbedtls_des_init
pQa:_derive_mpi
rTa:_mbedtls_ssl_ciphersuite_uses_ec
Pf:_emscripten_glUniform4iv
hKa:_mbedtls_cipher_get_block_size
Ov:__ZN12dmGameSystem13CompGuiCreateERKN12dmGameObject21ComponentCreateParamsE
HC:__GLOBAL__sub_I_script_model_cpp
wpa:__ZL21stbi__zhuffman_decodeP10stbi__zbufP14stbi__zhuffman
kl:__ZN10dmProfiler14ToggleProfilerEv
x$:__ZN8dmRender24GetOptimalDisplayProfileEPNS_15DisplayProfilesEjjjPK7dmArrayIyE
Uma:__ZN8dmBuffer14CalcStructSizeEjPKNS_17StreamDeclarationEPjS3_
oRa:_ecp_randomize_mxz
uKa:_ssl_get_hs_total_len
tZa:___ftello
hO:__ZN17DebugDrawcallback28internalProcessTriangleIndexEP9btVector3ii
zaa:_buffer_meth_setstats
Uqa:__ZN8dmSocket12IsSocketIPv4Ei
Z0a:___cxa_pure_virtual__wrapper
Koa:__ZN17dmHttpCacheVerify11VerifyCacheEPN11dmHttpCache5CacheEPN5dmURI5PartsEPN5dmDNS7ChannelEy
OU:__ZN12gjkepa2_impl3EPA6expandEjPNS_3GJK3sSVEPNS0_5sFaceEjRNS0_8sHorizonE
Yma:__ZN8dmBuffer6CreateEjPKNS_17StreamDeclarationEhPj
Ow:__ZN12dmGameSystem16CompLightDestroyERKN12dmGameObject22ComponentDestroyParamsE
NMa:_x509_crt_find_parent_in
_v:__ZN12dmGameSystem11RenderNodesEPN5dmGui5SceneEPKNS0_11RenderEntryEPKN10Vectormath3Aos7Matrix4EPKfPPKNS0_12StencilScopeEjPv
_ga:_luaB_corunning
gXa:_twobyte_strstr
UHa:_ecdsa_can_do
Fta:_EmitRescaledAlphaYUV
p_a:__ZNSt9type_infoD2Ev
nWa:_socket
y_a:__ZNK10__cxxabiv121__vmi_class_type_info27has_unambiguous_public_baseEPNS_19__dynamic_cast_infoEPvi
jn:__ZN12dmGameObject21GetAbsoluteIdentifierEPNS_8InstanceEPKcj
Gj:FUNCTION_TABLE_fiifii
vg:_emscripten_glVertexAttribI4ui
Sra:__ZN8dmThreadL16ThreadStartProxyEPv
YS:__ZN28btTriangleConvexcastCallbackC2EPK13btConvexShapeRK11btTransformS5_S5_f
Jw:__ZN12dmGameSystem20CompLabelSetPropertyERKN12dmGameObject26ComponentSetPropertyParamsE
bo:__ZN12dmGameObject11GetPropertyEPNS_10PropertiesEyRNS_11PropertyVarE
sS:__ZN33btMinkowskiPenetrationDepthSolver24getPenetrationDirectionsEv
aQ:__ZNK21btConvexInternalShape9serializeEPvP12btSerializer
FYa:_fseek
bP:__ZN16btEmptyAlgorithmD0Ev
jb:___map_file
hj:_pthread_key_create
F5:__ZN8dmScript12ReloadModuleEPNS_7ContextEPN8dmLuaDDF9LuaSourceEy
pDa:__ZN5dmGuiL18NodeProxy_tostringEP9lua_State
Ud:_emscripten_glGetBooleani_v
ce:_emscripten_glGetObjectParameterivARB
lAa:__ZN5dmGui16SetNodeBlendModeEPNS_5SceneEjNS_9BlendModeE
Ava:_Predictor4
Bva:_Predictor5
Cva:_Predictor6
Dva:_Predictor7
wva:_Predictor0
xva:_Predictor1
yva:_Predictor2
zva:_Predictor3
iia:_g_read
Eva:_Predictor8
Fva:_Predictor9
jS:__ZN30btGjkEpaPenetrationDepthSolverD0Ev
el:__ZN15dmEngineService3NewEt
Qc:_emscripten_glColorMaski
FIa:_mbedtls_rsa_pkcs1_decrypt
eSa:_mbedtls_md_update
wka:__ZN5dmHID14GetMousePacketEPNS_7ContextEPNS_11MousePacketE
mN:__ZNK21btCollisionDispatcher15getNumManifoldsEv
iI:__ZN9dmPhysics11MotionState17setWorldTransformERK11btTransform
xXa:_getpeername
UQ:__ZNK15btCompoundShape21calculateLocalInertiaEfR9btVector3
_h:_glUniform4fv
eia:_io_tmpfile
hl:__ZN15dmEngineService14GetServicePortEt
UBa:__ZN5dmGuiL21LuaGetClippingVisibleEP9lua_State
rE:__ZN12dmGameSystemL11RunCallbackEPNS_12CallbackInfoE
cKa:_ssl_ep_len
i:DYNAMICTOP_PTR
K3:__ZN8dmScript16FinalizeInstanceEPNS_11ScriptWorldE
ra:invoke_v
Ema:__ZN5dmRigL12PoseToMatrixERK7dmArrayIN11dmTransform9TransformEERS0_IN10Vectormath3Aos7Matrix4EE
IM:__ZN28btHashedOverlappingPairCache18addOverlappingPairEP17btBroadphaseProxyS1_
aTa:_mbedtls_oid_get_ec_grp
jIa:_mbedtls_rsa_complete
ea:invoke_i
Dw:__ZN12dmGameSystem17CompLabelOnReloadERKN12dmGameObject23ComponentOnReloadParamsE
Ws:__ZN17dmResourceArchive14ShiftAndInsertEPNS_21ArchiveIndexContainerEPNS_12ArchiveIndexEPKhjiPKNS_18LiveUpdateResourceEPKNS_9EntryDataE
Hu:__ZN12dmGameSystemL22SetCollisionObjectDataEPNS_14CollisionWorldEPNS_18CollisionComponentEPNS_23CollisionObjectResourceEPN12dmPhysicsDDF19CollisionObjectDescEbRN9dmPhysics19CollisionObjectDataE
NEa:__ZN12dmDeviceNull15DeviceNullQueueEPvPKsj
DK:__ZZN23btDiscreteDynamicsWorld16solveConstraintsER19btContactSolverInfoEN27InplaceSolverIslandCallbackD2Ev
AI:__ZN9dmPhysics19CollisionObjectDataC2Ev
Z4a:_emscripten_glFramebufferTexture2D__wrapper
kHa:_mbedtls_pk_init
$aa:_opt_meth_getoption
lXa:_strncpy
Yua:_HE16
QVa:_sinh
gVa:_mbedtls_chachapoly_starts
d6:__ZN8dmScript11Sys_OpenURLEP9lua_State
Kl:__ZN12dmGameObject11InputActionC2Ev
BZa:_fread
Hv:__GLOBAL__sub_I_comp_gui_cpp
m3a:_emscripten_glClearBufferfi__wrapper
AC:__ZN12dmGameSystem21ScriptFactoryRegisterERKNS_16ScriptLibContextE
YC:__ZN12dmGameSystem20Physics_RayCastAsyncEP9lua_State
DAa:__ZN5dmGui19CancelAnimationHashEPNS_5SceneEjy
Aw:__ZN12dmGameSystem15CompLabelUpdateERKN12dmGameObject22ComponentsUpdateParamsERNS0_22ComponentsUpdateResultE
Lta:_EmitAlphaRGBA4444
Me:_emscripten_glIsVertexArray
fG:__ZN10dmGraphicsL19LogFrameBufferErrorEj
gLa:_mbedtls_pk_ec_11922
Vi:_llvm_trap
Fma:__ZN5dmRig10SetEnabledEPNS_11RigInstanceEb
cda:_luaG_concaterror
kU:__ZN23btConvexConvexAlgorithm10CreateFuncD0Ev
l$a:dynCall_fiiiiiiiiii
oV:__ZN11b2GridShapeD0Ev
Yya:__ZN5dmGui14GetRenderOrderEPNS_5SceneE
yb:___syscall330
B$:__ZN8dmRender10NewFontMapEPN10dmGraphics7ContextERNS_13FontMapParamsE
CRa:_ecp_mod_p256k1
YT:__ZN28btCompoundCollisionAlgorithmC2ERK36btCollisionAlgorithmConstructionInfoP17btCollisionObjectS4_b
Zua:_DC16NoTop
sW:__ZNK16b2PrismaticJoint13GetJointSpeedEv
A8:_bit_band
Zd:_emscripten_glGetFragDataLocation
nC:__ZN11dmHashTableIyN12dmGameObject22InstancePropertyBufferEE3PutEyRKS1_
wd:_emscripten_glEnableVertexAttribArray
ZU:__ZN7b2ShapeD2Ev
gya:__ZN5dmGui15AllocateLayoutsEPNS_5SceneEmm
uY:__ZN13b2DynamicTree9MoveProxyEiRK6b2AABBRK6b2Vec2
Eba:_lua_checkstack
vd:_emscripten_glEnableClientState
wl:__ZL22JsToDef_SendNumMessagePKcf
gj:_pthread_join
ny:__ZN12dmGameSystem20CompSpineModelUpdateERKN12dmGameObject22ComponentsUpdateParamsERNS0_22ComponentsUpdateResultE
dY:__ZN15b2ContactFilterD0Ev
lL:__ZN12btAxisSweep3C2ERK9btVector3S2_tP22btOverlappingPairCacheb
u3a:_emscripten_glTexParameteriv__wrapper
Lv:__ZN12dmGameSystem15SetNodeCallbackEPN5dmGui5SceneEjPKv
q$a:dynCall_iii
Qn:__ZN12dmGameObject8SetScaleEPNS_8InstanceEN10Vectormath3Aos7Vector3E
g4:__ZN8dmScript14GetStreamValueIfEEdPvi
yFa:__ZN7dmSound25GetAndIncreasePlayCounterEv
wRa:_mbedtls_ecp_gen_privkey
kPa:_camellia_crypt_cfb128_wrap
hP:__ZN13btGhostObjectD0Ev
Kya:__ZN5dmGui13DispatchInputEPNS_5SceneEPKNS_11InputActionEjPb
fF:__ZN10dmGraphics18RunApplicationLoopEPvPFvS0_EPFiS0_E
MS:__ZNK15btTriangleShape49batchedUnitVectorGetSupportingVertexWithoutMarginEPK9btVector3PS0_i
NB:__ZN12dmGameSystem12DestroyImageEPNS_9ImageDescE
yr:__ZN5dmDDF11LoadContext11AllocStringEi
fl:__ZN15dmEngineService6DeleteEPNS_13EngineServiceE
jC:__ZN12dmGameSystem28CollectionFactoryComp_UnloadEP9lua_State
q5a:_emscripten_glReadPixels__wrapper
GU:__ZNK12gjkepa2_impl3GJK10getsupportERK9btVector3RNS0_3sSVE
oba:_opt_get_ip6_multicast_loop
h$a:dynCall_fiii
sha:_luaB_rawset
wz:__ZN12dmGameSystem21ResAnimationSetCreateERKN10dmResource20ResourceCreateParamsE
jia:_read_line
WVa:___lctrans_impl
VMa:_mbedtls_aes_free
P1a:_emscripten_glCullFace__wrapper
aDa:__ZN5dmGuiL20LuaNewParticlefxNodeEP9lua_State
lja:_getn
td:_emscripten_glDrawRangeElements
wXa:_getc
QV:__Z10b2DistanceP16b2DistanceOutputP14b2SimplexCachePK15b2DistanceInput
dra:__ZN8dmSocket4BindEiNS_7AddressEi
LK:__ZN23btDiscreteDynamicsWorld20serializeRigidBodiesEP12btSerializer
Tfa:_getS
Zqa:__ZN8dmSocket8FinalizeEv
vLa:_mbedtls_ssl_transform_init
W1a:_emscripten_glBlendEquation__wrapper
Rfa:_getF
$_:__ZN15b2FrictionJoint24SolvePositionConstraintsERK12b2SolverData
xja:_str_find
cCa:__ZN5dmGuiL16LuaDeleteTextureEP9lua_State
Lu:__ZN12dmGameSystem26CompCollisionObjectDestroyERKN12dmGameObject22ComponentDestroyParamsE
uVa:_mul64
od:_emscripten_glDrawArrays
vc:_emscripten_glBlendColor
IW:__ZN15b2RevoluteJoint23InitVelocityConstraintsERK12b2SolverData
Uk:__ZN8dmEngine4InitEPNS_6EngineEiPPc
ls:__ZN11dmHashTableImyE3PutEmRKy
pj:_signal
Xya:__ZN5dmGui10ResetNodesEPNS_5SceneE
XN:__ZZN16btCollisionWorld13rayTestSingleERK11btTransformS2_P17btCollisionObjectPK16btCollisionShapeS2_RNS_17RayResultCallbackEEN15LocalInfoAdder215addSingleResultERNS_14LocalRayResultEb
Gla:__ZN10dmParticle11SetRotationEPNS_7ContextEjRKN10Vectormath3Aos4QuatE
Hp:__ZN12dmGameObject14ResLuaRecreateERKN10dmResource22ResourceRecreateParamsE
gPa:_gcm_ctx_alloc
PK:__ZN11btRigidBodyD0Ev
Tma:__ZN8dmBuffer13DeleteContextEv
jra:__ZN8dmSocket11SelectorSetEPNS_8SelectorENS_12SelectorKindEi
rk:FUNCTION_TABLE_viifii
eHa:_mbedtls_md5_clone
jU:__ZN23btConvexConvexAlgorithm10CreateFuncD2Ev
jca:_lua_pushstring
Rea:_luaH_getstr
Nr:__ZN5dmDDF12OutputStream11WriteDoubleEd
uza:__ZN5dmGui19GetNodeSpineSceneIdEPNS_5SceneEj
dDa:__ZN5dmGuiL17LuaParticlefxPlayEP9lua_State
r4a:_emscripten_glUniformMatrix3fv__wrapper
A2a:_emscripten_glVertexAttrib3fv__wrapper
I7:__ZN8dmScriptL10Quat_indexEP9lua_State
yXa:_send
ba:invoke_fiiiiif
tUa:_x509_parse_time
eIa:_pk_group_id_from_group
of:_emscripten_glTexParameterf
qf:_emscripten_glTexParameteri
ora:__ZN8dmSocket13GetHostByNameEPKcPNS_7AddressEbb
Z6:__ZN8dmScriptL11Matrix4_newEP9lua_State
i5a:_emscripten_glVertexAttribI4ui__wrapper
LPa:_mbedtls_des_crypt_ecb
wV:__ZN11b2GridShapeC2EPK9b2HullSet6b2Vec2ffjj
is:__ZN11dmHashTableImyE11SetCapacityEjj
PYa:_unlink
dLa:_ssl_parse_certificate_coordinate
UDa:__ZN7dmCrash13GetModuleNameEij
vC:__GLOBAL__sub_I_script_factory_cpp
bp:__ZN12dmGameObjectL23ScriptInstance_tostringEP9lua_State
w0a:_emscripten_glIsTexture__wrapper
Da:invoke_viffff
V_a:_llvm_bswap_i32
ula:__ZN10dmParticleL25CalculateModifierPositionEPNS_8InstanceEPN13dmParticleDDF7EmitterEPNS2_8ModifierE
Iy:__ZN12dmObjectPoolIN12dmGameSystem15SpriteComponentEE5AllocEv
Qua:_VR4
P2a:_emscripten_glHint__wrapper
ae:_emscripten_glGetIntegeri_v
PRa:_mbedtls_gcm_update
j9:_meth_send
nb:___syscall102
rR:__ZNK17btConvexHullShape9getVertexEiR9btVector3
gI:__ZN9dmPhysics11MotionStateD0Ev
aya:__ZN5dmGui21SetDynamicTextureDataEPNS_5SceneEyjjN7dmImage4TypeEbPKvj
sX:__ZN17b2ContactListener9PostSolveEP9b2ContactPK16b2ContactImpulse
gma:__ZN5dmRig10NewContextERKNS_16NewContextParamsE
GLa:_mbedtls_ssl_conf_transport
vFa:__ZN7dmSound11GetGroupRMSEyfPfS0_
Mj:FUNCTION_TABLE_fiiiiiiiiiii
FFa:__ZN12dmSoundCodecL19StbVorbisOpenStreamEPKvjPPv
mF:__ZN10dmGraphics15GetWindowHeightEPNS_7ContextE
lCa:__ZN5dmGuiL13LuaGetXAnchorEP9lua_State
mua:_WebPInitAlphaProcessing
uUa:_x509_parse_int
Q3a:_emscripten_glDrawArrays__wrapper
vx:__ZN12dmGameSystem21CompParticleFXDestroyERKN12dmGameObject22ComponentDestroyParamsE
m:__THREW__
J8:_bit_tohex
ABa:__ZN5dmGui15LuaSetSpineSkinEP9lua_State
Gna:__ZN5dmDNS10NewChannelEPPNS_7ChannelE
Pe:_emscripten_glLoadIdentity
WS:__ZNK15btTriangleShape16getPlaneEquationEiR9btVector3S1_
Oha:_db_setlocal
iVa:_mbedtls_chachapoly_update
E2a:_emscripten_glBindFramebuffer__wrapper
ti:_glfwGetWindowSize
VEa:__ZN7dmSoundL17MixResampleUpMonoIsLi0ELi1EEEvPKNS_10MixContextEPNS_13SoundInstanceEjjPfj
iPa:_camellia_crypt_ecb_wrap
yMa:_mbedtls_x509_crt_check_key_usage
Wk:__ZN8dmEngine20LoadBootstrapContentEPNS_6EngineEPN12dmConfigFile6ConfigE
mTa:_mbedtls_pem_free
Oh:_glPixelStorei
Gba:_lua_setlevel
o9:_timeout_init
M6:__ZN8dmScriptL16LuaTimerCallbackEPNS_10TimerWorldENS_14TimerEventTypeEjfmm
hca:_lua_pushinteger
pS:__ZN17btGjkPairDetectorC2EPK13btConvexShapeS2_iiffP22btVoronoiSimplexSolverP30btConvexPenetrationDepthSolver
lX:__ZN6b2Body14DestroyFixtureEP9b2Fixture
no:__ZN12dmGameObject23MergePropertyContainersEPNS_17PropertyContainerES1_
u_:__ZN24b2ChainAndPolygonContact6CreateEP9b2FixtureiS1_iP16b2BlockAllocator
n_a:__ZNK10__cxxabiv120__si_class_type_info16search_below_dstEPNS_19__dynamic_cast_infoEPKvib
b8:__ZN8dmScriptL11Vector3_divEP9lua_State
vJ:__ZN35btSequentialImpulseConstraintSolver10solveGroupEPP17btCollisionObjectiPP20btPersistentManifoldiPP17btTypedConstraintiRK19btContactSolverInfoP12btIDebugDrawP12btStackAllocP12btDispatcher
a7:__ZN8dmScriptL10Quat_BasisEP9lua_State
fsa:__ZN6dmWebP23DecodeCompressedTextureEPKvmPvmmNS_19TextureEncodeFormatE
SKa:_ssl_load_buffered_record
BX:__ZN16b2ContactManager7AddPairEPvS0_
RFa:_vorbis_decode_packet
Owa:_Launch
$Q:__ZN15btCompoundShape20recalculateLocalAabbEv
jM:__ZN16btDbvtBroadphase23getOverlappingPairCacheEv
Z7:__ZN8dmScriptL16Vector3_newindexEP9lua_State
T_:__ZNK15b2FrictionJoint10GetAnchorAEv
FP:__ZN34btSphereTriangleCollisionAlgorithm16processCollisionEP17btCollisionObjectS1_RK16btDispatcherInfoP16btManifoldResult
$J:__ZN23btDiscreteDynamicsWorld12removeActionEP17btActionInterface
QKa:_mbedtls_ssl_handshake_free
Qga:_read_numeral
LXa:_listen
Fba:_lua_xmove
Tz:__ZN12dmGameSystem22ResConvexShapeRecreateERKN10dmResource22ResourceRecreateParamsE
pxa:_handleTouches
Eja:_str_match
cIa:_pk_group_id_from_specified
rf:_emscripten_glTexParameteriv
bAa:__ZN5dmGui21GetNodeSpineAnimationEPNS_5SceneEj
yra:__ZN11dmHashTableIjPKcE3PutEjRKS1_
jq:__ZN12dmGameObject16CompScriptCreateERKNS_21ComponentCreateParamsE
Nma:__ZN12dmObjectPoolIPN5dmRig11RigInstanceEE4FreeEjb
cDa:__ZN5dmGuiL16LuaGetParticlefxEP9lua_State
sVa:_mbedtls_poly1305_update
kVa:_mbedtls_chachapoly_finish
fB:__ZN12dmGameSystem25ResRenderPrototypeDestroyERKN10dmResource21ResourceDestroyParamsE
_f:_emscripten_glVertexAttrib2fv
k6:__ZN8dmScript13InitializeSysEP9lua_State
f2a:b35
w_a:__ZNK10__cxxabiv121__vmi_class_type_info16search_above_dstEPNS_19__dynamic_cast_infoEPKvS4_ib
bua:_DecodeImageData
i_:__ZN12b2EPCollider7CollideEP10b2ManifoldPK11b2EdgeShapeRK11b2TransformPK14b2PolygonShapeS7_
fQ:__ZNK10btBoxShape32getPreferredPenetrationDirectionEiR9btVector3
K9:_meth_setfd_7491
$1a:b33
jFa:__ZN7dmSound15DeleteSoundDataEPNS_9SoundDataE
u9:_timeout_lua_sleep
ZMa:_mbedtls_internal_aes_encrypt
Zs:__ZN17dmResourceArchive6DeleteERPNS_21ArchiveIndexContainerE
z0:__ZN8dmRender17StencilTestParams4InitEv
q6:__ZN8dmScriptL24Sys_SetVsyncSwapIntervalEP9lua_State
sx:__ZN12dmGameSystem22CompParticleFXNewWorldERKN12dmGameObject23ComponentNewWorldParamsE
yg:_emscripten_glVertexAttribIPointer
QN:__ZN9btHashMapI9btHashPtrP16btCollisionShapeED2Ev
Co:__ZN12dmGameObject18Script_GetPositionEP9lua_State
p3a:b43
KW:__ZN15b2RevoluteJoint24SolvePositionConstraintsERK12b2SolverData
Rn:__ZN12dmGameObject17GetWorldTransformEPNS_8InstanceE
yGa:__ZN10dmDeviceJS13DeviceJSQueueEPvPKsj
aU:__ZN33btConvexConcaveCollisionAlgorithm21calculateTimeOfImpactEP17btCollisionObjectS1_RK16btDispatcherInfoP16btManifoldResult
W:invoke_dii
Dqa:__ZN8dmPPrint7Printer6IndentEi
Pea:_luaH_free
K1:__ZN8dmRender25RenderScript_SetColorMaskEP9lua_State
xOa:_get_zeros_padding
Y$:__ZN8dmRender14DeleteMaterialEPNS_13RenderContextEPNS_8MaterialE
Wq:__ZN5dmDDF11InputBuffer12ReadVarInt64EPy
zw:__ZN12dmGameSystem20CompLabelAddToUpdateERKN12dmGameObject26ComponentAddToUpdateParamsE
Cga:_luaK_posfix
z$:__GLOBAL__sub_I_font_renderer_cpp
Gn:__ZN12dmGameObject13DispatchInputEPNS_10CollectionEPNS_11InputActionEj
SLa:_mbedtls_ssl_read
jG:__ZN10dmGraphics19GetRenderTargetSizeEPNS_12RenderTargetEjRjS2_
v5:__ZN8dmScriptL14HttpInitializeEPNS_7ContextE
Y3a:_emscripten_glGetVertexAttribIuiv__wrapper
c9:_meth_getoption
$sa:__ZN16dmConnectionPool4DialEPNS_14ConnectionPoolEPKctPN5dmDNS7ChannelEbiPjPN8dmSocket6ResultE
NL:__ZN15btNullPairCache18addOverlappingPairEP17btBroadphaseProxyS1_
f:HEAPU32
efa:_luaV_lessthan
PTa:_mbedtls_pk_ec_12815
RUa:_mbedtls_ccm_free
nt:__ZN10dmResourceL14CreateResourceEPNS_17ResourcePreloaderEPNS_14PreloadRequestEPvj
lR:__ZNK17btConvexHullShape24localGetSupportingVertexERK9btVector3
YNa:_mpi_uint_bigendian_to_host
YVa:_swapc
IFa:__ZN12dmSoundCodec20StbVorbisResetStreamEPv
gL:__ZN11btRigidBody25internalWritebackVelocityEf
Fia:_math_floor
g_a:__ZN10__cxxabiv18is_equalEPKSt9type_infoS2_b
nU:__ZN23btConvexConvexAlgorithmD0Ev
GBa:__ZN5dmGui23LuaGetSpinePlaybackRateEP9lua_State
Bl:__ZN14dmFacebookStubL20Facebook_AppFinalizeEPN11dmExtension9AppParamsE
pN:__ZN21btCollisionDispatcher26allocateCollisionAlgorithmEi
MM:__ZNK28btHashedOverlappingPairCache26getOverlappingPairArrayPtrEv
d5a:_emscripten_glGetActiveUniformBlockName__wrapper
lza:__ZN5dmGui18SetNodeTextLeadingEPNS_5SceneEjf
Yh:_glTexSubImage2D
Nja:_max_expand
VVa:___lctrans
FZa:_strpbrk
aSa:_mbedtls_md_init
gGa:_init_blocksize
A:Math_sqrt
C3:__ZN8dmScript13GetInstanceIdEP9lua_State
Era:__ZN5dmSys25GetApplicationSupportPathEPKcPcj
Ph:_glPolygonOffset
zU:__ZN31btConvexPlaneCollisionAlgorithm20collideSingleContactERK12btQuaternionP17btCollisionObjectS4_RK16btDispatcherInfoP16btManifoldResult
ria:_f_write
VZ:__ZNK12b2WheelJoint16GetReactionForceEf
Nba:_lua_replace
Iq:__ZN5dmDDFL19DDFFileSaveFunctionEPvPKvj
bW:__ZNK7b2Mat3312GetInverse22EPS_
Dia:_math_deg
Fe:_emscripten_glIsEnabled
Sa:invoke_viiiiif
k7:__ZN8dmScriptL17Matrix4_RotationXEP9lua_State
B7:__ZN8dmScriptL16Matrix4_tostringEP9lua_State
hp:__ZN12dmGameObjectL21ScriptInstanceIsValidEP9lua_State
Uza:__ZN5dmGui19SetNodeInheritAlphaEPNS_5SceneEjb
BT:__ZN30btActivatingCollisionAlgorithmD2Ev
Nz:__ZN12dmGameSystem25ResCollisionObjectDestroyERKN10dmResource21ResourceDestroyParamsE
pn:__ZN12dmGameObject11ScaleAlongZEPNS_16CollectionHandleE
TX:__ZN7b2World12DestroyJointEP7b2Joint
yS:__ZN20btPersistentManifold16sortCachedPointsERK15btManifoldPoint
Ci:_glfwSetMarkedTextCallback
o1a:_emscripten_glDepthRangef__wrapper
HT:__ZN26btBoxBoxCollisionAlgorithm21calculateTimeOfImpactEP17btCollisionObjectS1_RK16btDispatcherInfoP16btManifoldResult
vsa:_deflateEnd
YF:__ZN10dmGraphics18GetUniformLocationEmy
HWa:___unlockfile
th:_glDrawElements
X3:__ZN8dmScript13LuaStackCheckC2EP9lua_Statei
F_a:__ZSt15get_new_handlerv
WBa:__ZN5dmGuiL22LuaGetClippingInvertedEP9lua_State
Sba:_lua_isnumber
Vpa:__Z13dmLogFinalizev
AKa:_mbedtls_ssl_dtls_replay_check
FG:__ZN10dmGraphics11SetCullFaceEPNS_7ContextEj
wN:__ZN17btCollisionObjectD2Ev
Xia:_luaopen_os
jw:__ZN12dmGameSystem17GuiGetURLCallbackEPN5dmGui5SceneEPN9dmMessage3URLE
Zi:_mktime
Ve:_emscripten_glReadPixels
Jz:__ZN12dmGameSystem25ResCollectionProxyDestroyERKN10dmResource21ResourceDestroyParamsE
bPa:_des_ctx_free
CHa:_rsa_sign_wrap
APa:_mbedtls_des3_init
sua:_VP8DspInit
$$:__ZN8dmRender18GetMaterialProgramEPNS_8MaterialE
nv:__ZN12dmGameSystem17SetCollisionFlipHEPvb
m_:__ZL19b2FindMaxSeparationPiPK14b2PolygonShapeRK11b2TransformS2_S5_
Eta:_EmitRescaledYUV
oY:__ZN13b2DynamicTree12AllocateNodeEv
$oa:__ZN12dmHttpClientL13HandleVersionEPviiiPKc
Y7:__ZN8dmScriptL13Vector3_indexEP9lua_State
qna:__ZN12dmConfigFile9GetStringEPNS_6ConfigEPKcS3_
AD:__ZN12dmGameSystemL13Sound_GetPeakEP9lua_State
nka:__ZN5dmHID10GetGamepadEPNS_7ContextEh
awa:_WebPYuv444ToBgrC
Df:_emscripten_glUniform2fv
zR:__ZNK21btConvexInternalShape24localGetSupportingVertexERK9btVector3
SHa:_ecdsa_verify_wrap
S5:__ZN8dmScript8Msg_PostEP9lua_State
As:__ZN10dmResource6GetRawEPNS_16SResourceFactoryEPKcPPvPj
MB:__ZN12dmGameSystem11CreateImageEPN10dmGraphics7ContextEPNS0_12TextureImageE
wH:__ZN9dmPhysics12SetEnabled2DEPNS_7World2DEPvb
ZCa:__ZN5dmGuiL20LuaSetFlipbookCursorEP9lua_State
B6:__ZN8dmScript8AddTimerEPNS_10TimerWorldEfbPFvS1_NS_14TimerEventTypeEjfmmEmm
uBa:__ZN5dmGui12LuaPlaySpineEP9lua_State
Pna:__ZN8dmEasing8GetValueENS_5CurveEf
paa:_auxiliar_tostring
ZEa:__ZN7dmSoundL23MixResampleIdentityMonoIsLi0ELi1EEEvPKNS_10MixContextEPNS_13SoundInstanceEjjPfj
U_a:_llvm_bswap_i16
kja:_foreachi
WV:__ZN16b2BlockAllocator4FreeEPvi
Y3:__ZN8dmScript13LuaStackCheckD2Ev
_pa:__ZN12dmMemProfile10InitializeEv
A9:_meth_close_7471
pW:__ZN16b2PrismaticJoint24SolvePositionConstraintsERK12b2SolverData
Dv:__ZN12dmGameSystem23CompFactoryGetPrototypeEPN12dmGameObject16CollectionHandleEPNS_16FactoryComponentE
B2:__ZN8dmRender28DispatchRenderScriptInstanceEPNS_20RenderScriptInstanceE
zF:__ZN10dmGraphics18SetIndexBufferDataEmjPKvj
xBa:__ZN5dmGui15LuaGetSpineBoneEP9lua_State
tb:___syscall168
AHa:_rsa_can_do
WU:__ZN15CProfileManager12Stop_ProfileEv
f3:__ZN8dmScript23RegisterScriptExtensionEPNS_7ContextEPNS_15ScriptExtensionE
mu:__ZN12dmGameSystem23GetUrlHashFromComponentEPNS_20CollectionProxyWorldEyj
iW:__ZNK16b2PrismaticJoint16GetReactionForceEf
XDa:__ZN7dmCrashL15InitializeCrashEPN11dmExtension6ParamsE
O3a:_emscripten_glGetObjectParameterivARB__wrapper
t2:__ZN11dmHashTableIyPN8dmRender8MaterialEE3PutEyRKS2_
oJ:__ZN9dmPhysics15OverlapCacheAddEPNS_12OverlapCacheERKNS_19OverlapCacheAddDataE
UJa:_mbedtls_ssl_resend
Wta:_VP8LCheckSignature
zd:_emscripten_glEndTransformFeedback
isa:_LZ4_decompress_fast
_R:__ZNK13btSphereShape49batchedUnitVectorGetSupportingVertexWithoutMarginEPK9btVector3PS0_i
RI:__ZN9dmPhysics11DebugDraw2DC2EPNS_14DebugCallbacksE
vZ:__ZN12b2MouseJoint24SolvePositionConstraintsERK12b2SolverData
pRa:_ecp_double_add_mxz
hia:_g_write
q:nan
hu:__ZN12dmGameSystemL23PreloadCompleteCallbackEPKN10dmResource31PreloaderCompleteCallbackParamsE
uqa:__ZN7dmMutex7TryLockEPNS_5MutexE
INa:_mbedtls_mpi_sub_abs
hH:__ZN9dmPhysics12NewHullSet2DEPNS_9Context2DEPKfjPKNS_8HullDescEj
QOa:_des3_crypt_ecb_wrap
xHa:_mbedtls_pk_encrypt
mYa:_vsscanf
pWa:_bind
WLa:_ssl_write_real
Ed:_emscripten_glFrontFace
B5a:_emscripten_glTexImage2D__wrapper
L1a:_emscripten_glDepthFunc__wrapper
RVa:_expm1
Cfa:_luaL_optinteger
s$:__ZN8dmRenderL23DebugRenderListDispatchERKNS_24RenderListDispatchParamsE
yK:__ZN23btDiscreteDynamicsWorld11setNumTasksEi
AR:__ZNK21btConvexInternalShape11getAabbSlowERK11btTransformR9btVector3S4_
O$:__ZN8dmRender10FlushTextsEPNS_13RenderContextEjjb
aD:__ZN12dmGameSystemL20Physics_DestroyJointEP9lua_State
sg:_emscripten_glVertexAttribI4iv
WY:__ZN22b2GridAndCircleContact6CreateEP9b2FixtureiS1_iP16b2BlockAllocator
Dj:FUNCTION_TABLE_dii
zT:__ZNK14btQuantizedBvh25reportRayOverlappingNodexEP21btNodeOverlapCallbackRK9btVector3S4_
D0:__ZN8dmRender19RenderContextParamsC2Ev
HD:__ZN12dmGameSystemL10Sound_StopEP9lua_State
gfa:_luaV_concat
cZa:_islower
R9:_socket_close
RW:__ZN15b2RevoluteJoint17SetMaxMotorTorqueEf
vG:__ZN10dmGraphics10ReadPixelsEPNS_7ContextEPvj
vO:__ZNK16btCollisionWorld15convexSweepTestEPK13btConvexShapeRK11btTransformS5_RNS_20ConvexResultCallbackEf
I1a:_emscripten_glLoadMatrixf__wrapper
bH:__ZN9dmPhysics7FlipV2DEPv
QL:__ZN15btNullPairCache26getOverlappingPairArrayPtrEv
tPa:_aes_crypt_cfb128_wrap
MRa:_gcm_gen_table
wF:__ZN10dmGraphics22SetVertexBufferSubDataEmjjPKv
wya:__ZN5dmGui20CalculateNodeExtentsERKNS_4NodeENS_27CalculateNodeTransformFlagsERN10Vectormath3Aos7Matrix4E
t$:__ZN8dmRender21DisplayProfilesParamsC2Ev
Y9:_socket_shutdown
CO:__ZN31btDefaultCollisionConfigurationD0Ev
NXa:_sift
S8:_tcp_open
yDa:__ZN5dmGuiL24GuiScriptInstanceIsValidEP9lua_State
r7:__ZN8dmScriptL9NormalizeEP9lua_State
Oc:_emscripten_glClientActiveTexture
T7:__ZN8dmScriptL11Vector4_divEP9lua_State
iAa:__ZN5dmGui23SetNodeClippingInvertedEPNS_5SceneEjb
qda:_lua_yield
oHa:_mbedtls_pk_can_do
xNa:_mbedtls_mpi_lsb
Pda:_reallymarkobject
yp:__ZN12dmGameObject13ResAnimCreateERKN10dmResource20ResourceCreateParamsE
Yha:_io_close
Pma:__ZN5dmRig18FillBoneListArraysERKN8dmRigDDF7MeshSetERKNS0_12AnimationSetERKNS0_8SkeletonER7dmArrayIjESC_
fi:_glfwGetAcceleration
Bra:__ZN5dmSys26SetNetworkConnectivityHostEPKc
Aha:_luaB_xpcall
CEa:__ZN12dmLiveUpdate6UpdateEv
WP:__ZNK21btConvexInternalShape15getLocalScalingEv
wCa:__ZN5dmGuiL12LuaIsEnabledEP9lua_State
UB:__ZN11dmHashTableIyjE11SetCapacityEjj
cb:___buildEnvironment
LA:__ZN12dmGameSystem18ResMaterialDestroyERKN10dmResource21ResourceDestroyParamsE
$g:_glClearDepthf
CB:__ZN12dmGameSystem19ResSpineModelCreateERKN10dmResource20ResourceCreateParamsE
Qs:__ZN17dmResourceArchive17WrapArchiveBufferEPKvS1_PKcS1_P8_IO_FILEPPNS_21ArchiveIndexContainerE
QWa:_getint
vba:_opt_setmembership
CPa:_mbedtls_des_setkey
_4:__ZN8dmScript8PushHashEP9lua_Statey
hGa:_stb_vorbis_seek_start
Rz:__ZN12dmGameSystem20ResConvexShapeCreateERKN10dmResource20ResourceCreateParamsE
OQ:__ZNK16btCollisionShape21calculateTemporalAabbERK11btTransformRK9btVector3S5_fRS3_S6_
M$:__ZN8dmRender8DrawTextEPNS_13RenderContextEPNS_7FontMapEPNS_8MaterialEyRKNS_14DrawTextParamsE
e7:__ZN8dmScriptL15Matrix4_FrustumEP9lua_State
dGa:_maybe_start_packet
Dl:__ZN14dmFacebookStubL19Facebook_ThrowErrorEP9lua_State
ILa:_mbedtls_ssl_conf_authmode
Rqa:__ZN9dmProfile15AddCounterIndexEjj
nR:__ZNK17btConvexHullShape49batchedUnitVectorGetSupportingVertexWithoutMarginEPK9btVector3PS0_i
mn:__ZN12dmGameObject17GetComponentIndexEPNS_8InstanceEyPt
gb:___cxa_pure_virtual
ux:__ZN12dmGameSystem20CompParticleFXCreateERKN12dmGameObject21ComponentCreateParamsE
yv:__ZN12dmGameSystem18CompFactoryDestroyERKN12dmGameObject22ComponentDestroyParamsE
U3a:_emscripten_glGetBooleani_v__wrapper
OQa:_mbedtls_ecp_point_write_binary
hV:__ZNK11b2EdgeShape13GetChildCountEv
Lq:__ZN5dmDDF13DoLoadMessageEPNS_11LoadContextEPNS_11InputBufferEPKNS_10DescriptorEPNS_7MessageE
iLa:_mbedtls_ssl_check_cert_usage
laa:__GLOBAL__sub_I_lua_source_ddf_cpp
ALa:_ssl_handshake_init
I4:__ZN8dmScriptL12Stream_indexEP9lua_State
qz:__ZN12dmGameSystem20CompTileGridOnReloadERKN12dmGameObject23ComponentOnReloadParamsE
GH:__ZN9dmPhysics14ReplaceShape2DEPNS_9Context2DEPvS2_
J6:__ZN8dmScript15TimerInitializeEPNS_7ContextE
UTa:_ssl_parse_truncated_hmac_ext
um:__ZN12dmGameObject18SetUpdateOrderPrioEPNS_8RegisterEmt
v_a:__ZN10__cxxabiv121__vmi_class_type_infoD0Ev
fea:_luaY_parser
Xc:_emscripten_glCreateProgram
gOa:_mbedtls_mpi_inv_mod
oE:__ZN12dmGameSystemL10GetDimModeEP9lua_State
Fs:__ZN10dmResource13GetDescriptorEPNS_16SResourceFactoryEPKcPNS_19SResourceDescriptorE
ns:__ZN10dmResource13DeleteFactoryEPNS_16SResourceFactoryE
bm:__ZN12dmGameObjectL16DoDeleteInstanceEPNS_10CollectionEPNS_8InstanceE
rY:__ZN13b2DynamicTree7BalanceEi
XCa:__ZN5dmGuiL14LuaGetTrackingEP9lua_State
Yi:_longjmp
F6:__ZN8dmScriptL13GetTimerWorldEPNS_11ScriptWorldE
Gha:_db_gethook
Z2:__ZN8dmScriptL19Lua_Math_RandomseedEP9lua_State
Vo:__ZN12dmGameObjectL27LuaAnimationStoppedCallbackEP9lua_StatePv
iS:__ZN30btConvexPenetrationDepthSolverD2Ev
SW:__ZNK15b2RevoluteJoint14IsLimitEnabledEv
HVa:___stdout_write
eua:_ProcessRows
J2a:_emscripten_glGenVertexArrays__wrapper
bFa:__ZN7dmSound14RegisterDeviceEPNS_10DeviceTypeE
Wda:_luaM_growaux_
d1a:_emscripten_glEndConditionalRender__wrapper
_$a:dynCall_viiiii
cPa:_ccm_camellia_setkey_wrap
py:__ZN12dmGameSystemL18RenderListDispatchERKN8dmRender24RenderListDispatchParamsE_2467
UV:__ZN16b2BlockAllocatorD2Ev
yy:__ZN12dmGameSystem33CompSpineModelSetIKTargetPositionEPNS_19SpineModelComponentEyfN10Vectormath3Aos6Point3E
LE:__ZN10dmGraphics13ContextParamsC2Ev
rua:_ExtractAlpha
MQ:__ZNK16btCollisionShape9serializeEPvP12btSerializer
zz:__ZN12dmGameSystem15ResCameraCreateERKN10dmResource20ResourceCreateParamsE
qCa:__ZN5dmGuiL11LuaSetPivotEP9lua_State
IIa:_rsa_rsassa_pkcs1_v15_encode
Vq:__ZN5dmDDF11InputBuffer12ReadVarInt32EPj
Sva:_WebPRescalerDspInit
hX:__ZN6b2BodyD2Ev
Lza:__ZN5dmGui17SetNodeParticlefxEPNS_5SceneEjy
x_a:__ZNK10__cxxabiv121__vmi_class_type_info16search_below_dstEPNS_19__dynamic_cast_infoEPKvib
zm:__ZNSt3__218__insertion_sort_3IRN12dmGameObject21ComponentTypeSortPredEPtEEvT0_S5_T_
$z:__ZN12dmGameSystem16ResFactoryCreateERKN10dmResource20ResourceCreateParamsE
Cba:_opt_get_error
yja:_str_format
RD:__ZN12dmGameSystem29SpineComp_SetIKTargetPositionEP9lua_State
GUa:_mbedtls_base64_decode
ULa:_mbedtls_ssl_write
N_:__ZN15b2DistanceJoint4DumpEv
xg:_emscripten_glVertexAttribI4usv
_d:_emscripten_glGetFramebufferAttachmentParameteriv
Bj:tempFloat
_Fa:_flush_packet
Fc:_emscripten_glClear
eFa:__ZN7dmSoundL16GetOrCreateGroupEPKc
lQa:_ecdh_make_public_internal
Ao:__ZN12dmGameObject10Script_GetEP9lua_State
FM:__ZN16btDbvtBroadphaseC2EP22btOverlappingPairCache
y5:__ZN8dmScript9JsonToLuaEP9lua_StatePN6dmJson8DocumentEiPcm
Cp:__ZN12dmGameObjectL16AcquireResourcesEPKcPN10dmResource16SResourceFactoryEPNS_8RegisterEPN15dmGameObjectDDF14CollectionDescES1_PPNS_16CollectionHandleE
dha:_auxresume
KT:__ZN16btBoxBoxDetectorD0Ev
g8:__ZN8dmScriptL15Vector_tostringEP9lua_State
kAa:__ZN5dmGui16GetNodeBlendModeEPNS_5SceneEj
ij:_pthread_mutex_destroy
K5:__ZN8dmScriptL10LoadModuleEP9lua_State
ky:__ZN12dmGameSystem21CompSpineModelDestroyERKN12dmGameObject22ComponentDestroyParamsE
oI:__ZN9dmPhysics18GetLinearDamping3DEPv
JN:__ZNK16btCollisionWorld7rayTestERK9btVector3S2_RNS_17RayResultCallbackE
LYa:___strdup
L6:__ZN8dmScriptL11TimerCancelEP9lua_State
ch:_glCompileShader
Zk:__ZN8dmEngineL20InputBufferOrderSortEPKvS1_
Wfa:_panic
kfa:_luaZ_init
XD:__GLOBAL__sub_I_script_sprite_cpp
Pt:__ZN12dmGameSystem18FinalizeScriptLibsERKNS_16ScriptLibContextE
wh:_glFlush
mCa:__ZN5dmGuiL13LuaSetXAnchorEP9lua_State
Dga:_luaK_fixline
yBa:__ZN5dmGui16LuaSetSpineSceneEP9lua_State
e0:__ZN8dmRender30GetMaterialProgramConstantInfoEPNS_8MaterialEyPyPS2_Pj
Mu:__ZN12dmGameSystem17CollisionCallbackEPvtS0_tS0_
ge:_emscripten_glGetRenderbufferParameteriv
mJ:__ZN11dmHashTableImN9dmPhysics12OverlapEntryEE3PutEmRKS1_
WO:__ZN28btCompoundCollisionAlgorithm10CreateFuncD0Ev
RRa:_mbedtls_gcm_crypt_and_tag
pm:__ZN12dmGameObject13NewCollectionEPKcPN10dmResource16SResourceFactoryEPNS_8RegisterEj
eH:__ZN9dmPhysics16NewCircleShape2DEPNS_9Context2DEf
oGa:__ZN12dmSoundCodec14WavResetStreamEPv
QMa:_mbedtls_pk_ec_12055
l2:__ZN8dmRenderL19RenderScriptIsValidEP9lua_State
HW:__ZN15b2RevoluteJointD0Ev
wza:__ZN5dmGuiL17SpinePoseCallbackEPvS0_
Qqa:__ZN9dmProfile15AllocateCounterEPKc
PQa:_mbedtls_ecp_point_read_binary
oAa:__ZN5dmGui14GetNodeYAnchorEPNS_5SceneEj
rva:_VP8LConvertBGRAToRGBA4444_C
mY:__ZN13b2DynamicTreeC2Ev
Gx:__ZN12dmGameSystem11SetPropertyEyRKN12dmGameObject11PropertyVarERN10Vectormath3Aos7Vector3ERKNS_11PropVector3E
qJ:__ZN11dmHashTableImN9dmPhysics12OverlapEntryEE5EraseEm
Vwa:_adler32
zpa:__ZL22stbi__jpeg_huff_decodeP10stbi__jpegP13stbi__huffman
AT:__ZNK14btQuantizedBvh29reportBoxCastOverlappingNodexEP21btNodeOverlapCallbackRK9btVector3S4_S4_S4_
R4a:_emscripten_glVertexAttribI3i__wrapper
bn:__ZN10Vectormath3Aos7inverseERKNS0_7Matrix4E
WQ:__ZN15btCompoundShape9setMarginEf
BM:__ZN20BroadphaseAabbTester7ProcessEPK10btDbvtNode
T4:__ZN11dmHashTableImPFN8dmScript6ResultEP9lua_StatePKN5dmDDF10DescriptorEPKcEE11SetCapacityEjj
wE:__GLOBAL__sub_I_gamesys_ddf_cpp
XZa:__ZL25default_terminate_handlerv
mMa:_x509_get_uid
zna:__ZN7dmCrypt10HashSha512EPKhjPh
$S:__ZN22btSubsimplexConvexCastC2EPK13btConvexShapeS2_P22btVoronoiSimplexSolver
zGa:__ZN10dmDeviceJS23DeviceJSFreeBufferSlotsEPv
XBa:__ZN5dmGuiL22LuaSetClippingInvertedEP9lua_State
y0a:_emscripten_glIsRenderbuffer__wrapper
et:__ZN11dmHashTableIyjE3PutEyRKj
A$:__ZN8dmRender13FontMapParamsC2Ev
ila:__ZN10dmParticle4GetYEPKN13dmParticleDDF11SplinePointEjf
tI:__ZN9dmPhysics16RequestRayCast3DEPNS_7World3DERKNS_14RayCastRequestE
Qha:_db_setupvalue
Lw:__ZN12dmGameSystem17CompLightNewWorldERKN12dmGameObject23ComponentNewWorldParamsE
hAa:__ZN5dmGui22SetNodeClippingVisibleEPNS_5SceneEjb
xwa:_VP8InitBitReader
zx:__ZN12dmGameSystem20CompParticleFXRenderERKN12dmGameObject22ComponentsRenderParamsE
gN:__ZN21btCollisionDispatcher14getNewManifoldEPvS0_
lTa:_pem_pbkdf1
zQ:__ZNK14btCapsuleShape7getNameEv
RWa:_pop_arg
tna:__ZN7dmCryptL14EncryptXTeaCTREPhjPKhj
KOa:_chachapoly_ctx_alloc
TMa:_mbedtls_x509_crt_verify_restartable
P8:_collect_fd
LU:__ZN12gjkepa2_impl3EPA8EvaluateERNS_3GJKERK9btVector3
pb:___syscall140
qb:___syscall142
rb:___syscall145
sb:___syscall146
YZ:__ZN12b2WheelJointD0Ev
Ok:_main
Lba:_lua_remove
jua:_WebPMultRowC
$i:_pthread_attr_destroy
Sf:_emscripten_glUniformMatrix2fv
ds:__ZN10dmResource18BundleVersionValidEPKNS_8ManifestEPKc
mA:__ZN12dmGameSystem20ResGamepadMapDestroyERKN10dmResource21ResourceDestroyParamsE
zWa:_hexval
wn:__ZN12dmGameObject11GetPositionEPNS_8InstanceE
ph:_glDepthMask
xd:_emscripten_glEnablei
mVa:_mbedtls_chachapoly_encrypt_and_tag
lua:_WebPMultRows
eN:__ZN21btCollisionDispatcherD0Ev
S3a:_emscripten_glStencilOp__wrapper
cF:__ZN10dmGraphics11CloseWindowEPNS_7ContextE
ko:__ZN12dmGameObject13PushURLStringEPNS_24PropertyContainerBuilderEyPKc
n0:__ZN8dmRender20SetMaterialUserData2EPNS_8MaterialEy
q5:__ZN8dmScriptL12SendResponseEPKN9dmMessage3URLEiPKcjS5_j
zFa:__ZN7dmSound10SetLoopingEPNS_13SoundInstanceEb
RA:__ZN12dmGameSystem18ResMeshSetRecreateERKN10dmResource22ResourceRecreateParamsE
cI:__ZN9dmPhysics20NewConvexHullShape3DEPNS_9Context3DEPKfj
sQa:_mbedtls_ecdsa_write_signature_restartable
OS:__ZNK15btTriangleShape32getPreferredPenetrationDirectionEiR9btVector3
kta:_WebPAllocateDecBuffer
BL:__ZN20btAlignedObjectArrayI16btBroadphasePairE17quickSortInternalI29btBroadphasePairSortPredicateEEvT_ii
A$a:dynCall_v
bCa:__ZN5dmGuiL13LuaNewTextureEP9lua_State
vxa:__ZN5dmGui10NewContextEPKNS_16NewContextParamsE
$f:_emscripten_glVertexAttrib3f
g7:__ZN8dmScriptL20Matrix4_OrthographicEP9lua_State
IU:__ZN12gjkepa2_impl3GJK13projectoriginERK9btVector3S3_S3_S3_PfRj
XM:__ZN17btOverlapCallbackD2Ev
Vfa:_l_alloc
Doa:__ZN11dmHttpCache7GetInfoEPNS_5CacheEPKcPNS_9EntryInfoE
Tk:__ZN8dmEngine6DeleteEPNS_6EngineE
xla:__ZNSt3__27__sort3IRN10dmParticle8SortPredEPNS1_8ParticleEEEjT0_S6_S6_T_
n5a:_emscripten_glDrawRangeElements__wrapper
xca:_lua_settable
zja:_gfind_nodef
Fla:__ZN10dmParticle11SetPositionEPNS_7ContextEjRKN10Vectormath3Aos6Point3E
FA:__ZN12dmGameSystem14ResLightCreateERKN10dmResource20ResourceCreateParamsE
br:__ZN5dmDDF11InputBuffer10ReadUInt32EPj
X2:__ZN8dmScript9LuaPPrintEP9lua_State
Msa:__tr_align
_Ma:_mbedtls_internal_aes_decrypt
P9:_meth_settimeout_7499
boa:__ZN20ReverseHashContainer26AllocReverseHashStatesSlotEv
ava:_DC8uv
MUa:_mbedtls_camellia_crypt_ecb
LN:__ZN16btCollisionWorld21removeCollisionObjectEP17btCollisionObject
gS:__ZN27btContinuousConvexCollisionC2EPK13btConvexShapeS2_P22btVoronoiSimplexSolverP30btConvexPenetrationDepthSolver
xC:__ZN12dmGameSystem18FactoryComp_UnloadEP9lua_State
e4a:_emscripten_glGetTexParameterIiv__wrapper
Rwa:_WebPGetWorkerInterface
Q4a:_emscripten_glTransformFeedbackVaryings__wrapper
CNa:_mpi_get_digit
fZa:_ispunct
nJ:__ZN9dmPhysics17OverlapCacheResetEPNS_12OverlapCacheE
m5:__ZN8dmScript9Html5_RunEP9lua_State
eh:_glCompressedTexSubImage2D
Mt:__GLOBAL__sub_I_gamesys_script_cpp
Yea:_luaT_gettmbyobj
ve:_emscripten_glGetUniformfv
IBa:__ZN5dmGuiL13LuaNewBoxNodeEP9lua_State
Rta:_VP8GetHeaders
zI:__ZN9dmPhysics14NewWorldParamsC2Ev
Jta:_EmitAlphaRGB
j_a:__ZNK10__cxxabiv117__class_type_info29process_static_type_above_dstEPNS_19__dynamic_cast_infoEPKvS4_i
VHa:_ecdsa_alloc_wrap
mH:__ZN9dmPhysics18SetGridShapeEnableEPvjj
bGa:_codebook_decode_deinterleave_repeat
xka:__ZN5dmHID16GetGamepadPacketEPNS_7GamepadEPNS_13GamepadPacketE
Sn:__ZN12dmGameObject14GetWorldMatrixEPNS_8InstanceE
_Ka:_ssl_check_record_type
xu:__ZN12dmGameSystem28CompCollectionProxyOnMessageERKN12dmGameObject24ComponentOnMessageParamsE
Gsa:_inflateEnd
KZ:__ZNK11b2WeldJoint10GetAnchorBEv
fd:_emscripten_glDeleteVertexArrays
Xva:_UpsampleArgbLinePair
Vs:__ZN17dmResourceArchive23NewArchiveIndexFromCopyERPNS_12ArchiveIndexEPNS_21ArchiveIndexContainerEj
Iu:__ZN12dmGameSystemL13SetupTileGridEPNS_14CollisionWorldEPNS_18CollisionComponentE
QM:__ZN28btHashedOverlappingPairCache19cleanProxyFromPairsEP17btBroadphaseProxyP12btDispatcher
dga:_luaK_getlabel
C1a:_emscripten_glValidateProgram__wrapper
OI:__ZN9dmPhysics11DebugDraw2D11DrawSegmentERK6b2Vec2S3_RK7b2Color
lYa:_sscanf
s4:__ZN8dmScript14SetStreamValueIsEEvPvid
If:_emscripten_glUniform3fv
xRa:_mbedtls_ecp_check_pub_priv
VK:__ZN11btRigidBody14setupRigidBodyERKNS_27btRigidBodyConstructionInfoE
ze:_emscripten_glGetVertexAttribIuiv
Jj:FUNCTION_TABLE_fiiiii
_sa:__ZN16dmConnectionPool6DoDialEPNS_14ConnectionPoolEPKctPN5dmDNS7ChannelEbiPjPN8dmSocket6ResultEbb
H2:__ZN8dmRender7CommandC2ENS_11CommandTypeE
qW:__ZN16b2PrismaticJointC2EPK19b2PrismaticJointDef
VFa:_vorbis_decode_initial
S2:__ZN11dmHashTableIyN8dmScript6ModuleEE3PutEyRKS1_
VM:__ZN28btHashedOverlappingPairCache28setInternalGhostPairCallbackEP25btOverlappingPairCallback
n6:__ZN8dmScriptL8Sys_ExitEP9lua_State
JJ:__ZN35btSequentialImpulseConstraintSolver21addFrictionConstraintERK9btVector3P11btRigidBodyS4_iR15btManifoldPointS2_S2_P17btCollisionObjectS8_fff
xT:__ZNK14btQuantizedBvh27walkStacklessTreeAgainstRayEP21btNodeOverlapCallbackRK9btVector3S4_S4_S4_ii
$M:__ZZN28btHashedOverlappingPairCache37removeOverlappingPairsContainingProxyEP17btBroadphaseProxyP12btDispatcherEN18RemovePairCallback14processOverlapER16btBroadphasePair
zVa:_free
OOa:_chacha20_ctx_alloc
xKa:_ssl_get_hs_frag_off
iz:__ZN12dmGameSystem19CompTileGridDestroyERKN12dmGameObject22ComponentDestroyParamsE
BH:__ZN9dmPhysics9GetMass2DEPv
NJa:_mbedtls_ssl_decrypt_buf
ZFa:_inverse_mdct
Uba:_lua_isuserdata
IEa:__ZN12dmLiveUpdate16MissingResourcesEPN10dmResource8ManifestEyPPhj
Md:_emscripten_glGetActiveAttrib
Pva:_WebPRescalerExportRowShrinkC
WQa:_ecp_mul_mxz
uEa:__ZN12dmLiveUpdate16ParseManifestBinEPhmPN10dmResource8ManifestE
HJa:_ssl_calc_finished_tls
Wea:_luaT_init
Hr:__ZN5dmDDF12OutputStream5WriteEPKvi
SS:__ZNK15btTriangleShape9getVertexEiR9btVector3
_B:__ZN12dmGameSystem16ReleaseResourcesEPN10dmResource16SResourceFactoryEPNS_16TileGridResourceE
Xg:_glBufferSubData
$qa:__ZN8dmSocket15SetReuseAddressEib
kBa:__ZN5dmGui13LuaGetOutlineEP9lua_State
bJ:__ZNK9dmPhysics11DebugDraw3D12getDebugModeEv
kI:__ZN9dmPhysics12ApplyForce3DEPNS_9Context3DEPvRKN10Vectormath3Aos7Vector3ERKNS4_6Point3E
h_a:__ZNK10__cxxabiv117__class_type_info24process_found_base_classEPNS_19__dynamic_cast_infoEPvi
Wqa:__ZN8dmSocket14ResultToStringENS_6ResultE
Gpa:__ZL31stbi__load_and_postprocess_8bitP13stbi__contextPiS1_S1_i
fua:_VP8LDecodeAlphaImageStream
hqa:__ZN9dmMessage13GetSocketNameEy
Mva:_WebPRescalerImportRowExpandC
b$:__ZNK11b2GearJoint10GetAnchorAEv
rra:__ZN8dmSocket14SetSendTimeoutEiy
Yoa:__ZN12dmHttpClient3GetEPNS_6ClientEPKc
_Ra:_mbedtls_hmac_drbg_free
oC:__ZN12dmGameSystemL14HashTableIndexEP9lua_State
_Ua:_mbedtls_chacha20_starts
qTa:_mbedtls_ssl_get_ciphersuite_sig_pk_alg
UVa:___strerror_l
cJ:__ZN12btIDebugDraw8drawAabbERK9btVector3S2_S2_
Sfa:_luaL_loadbuffer
nD:__ZN12dmGameSystemL3SetEP9lua_State
H4:__ZN8dmScriptL10Stream_lenEP9lua_State
N:Math_min
Rna:__ZN20ReverseHashContainer6EnableEb
NV:__Z13b2TestOverlapPK7b2ShapeiS1_iRK11b2TransformS4_
x3a:_emscripten_glGetUniformfv__wrapper
O0:__ZN8dmRender16SetSystemFontMapEPNS_13RenderContextEPNS_7FontMapE
gaa:_socket_strerror
N8:_select_open
rCa:__ZN5dmGuiL11LuaGetWidthEP9lua_State
N0:__ZN8dmRender13RenderListEndEPNS_13RenderContextE
My:__ZN12dmObjectPoolIN12dmGameSystem15SpriteComponentEE4FreeEjb
tD:__ZN12dmLiveUpdate22Resource_StoreResourceEP9lua_State
NUa:_mbedtls_camellia_crypt_cbc
t9:_timeout_lua_gettime
Kaa:_inet_global_toip
zX:__ZNSt3__26__sortIRPFbRK6b2PairS3_EPS1_EEvT0_S8_T_
F0:__ZN8dmRender13DebugRendererC2Ev
pOa:_mbedtls_cipher_set_padding_mode
uI:__ZN9dmPhysics9RayCast3DEPNS_7World3DERKNS_14RayCastRequestERNS_15RayCastResponseE
m$:__ZN8dmRender23InitializeDebugRendererEPNS_13RenderContextEjPKvjS3_j
AMa:_x509_crt_verify_restartable_ca_cb
_ha:_io_input
f_:__Z16b2CollideCirclesP10b2ManifoldPK13b2CircleShapeRK11b2TransformS3_S6_
sl:__ZL23GetEqualIndexOfListenerP9lua_StateP15JsToDefListener
TDa:__ZN7dmCrash16GetBacktraceAddrEij
KI:__ZN9dmPhysics11DebugDraw2D11DrawPolygonEPK6b2Vec2iRK7b2Color
ML:__ZN15btNullPairCacheD0Ev
WK:__ZN11btRigidBodyC2EfP13btMotionStateP16btCollisionShapeRK9btVector3
bpa:__ZN12dmHttpClientL13HandleContentEPvi
kD:__ZN12dmGameSystemL24UnpackConnectJointParamsEP9lua_StateN9dmPhysics9JointTypeEiRNS2_18ConnectJointParamsE
pla:__ZN10dmParticleL13UpdateEmitterEPNS_9PrototypeEPNS_8InstanceEPNS_16EmitterPrototypeEPNS_7EmitterEPN13dmParticleDDF7EmitterEf
w:tempDouble
nf:_emscripten_glTexParameterIuiv
lG:__ZN10dmGraphics24IsTextureFormatSupportedEPNS_7ContextENS_13TextureFormatE
zya:__ZN5dmGuiL18CollectInvClippersEPNS_5SceneEtR7dmArrayINS_20InternalClippingNodeEERNS_12ScopeContextEt
yw:__ZN12dmGameSystem19CompRenderConstantsaSERKS0_
naa:_auxiliar_open
Xda:_luaM_realloc_
A6:__ZN8dmScriptL9FreeTimerEPNS_10TimerWorldERNS_5TimerE
VP:__ZN10btBoxShape15setLocalScalingERK9btVector3
nu:__ZN12dmGameSystem27CompCollectionProxyNewWorldERKN12dmGameObject23ComponentNewWorldParamsE
f5:__ZN8dmScriptL9Script_eqEP9lua_State
gU:__ZN24btConvexTriangleCallbackD0Ev
P$:__ZN8dmRenderL22FontRenderListDispatchERKNS_24RenderListDispatchParamsE
gy:__ZN12dmGameSystem25CompSpineModelDeleteWorldERKN12dmGameObject26ComponentDeleteWorldParamsE
iCa:__ZN5dmGuiL12LuaGetLayoutEP9lua_State
C_a:___cxa_guard_acquire
fna:__ZN12dmConfigFile12ParseSectionEPNS_7ContextE
rm:__ZN12dmGameObject8GetWorldEPNS_16CollectionHandleEj
ab:__ZSt18uncaught_exceptionv
XQa:_ecp_mul_comb
cTa:_mbedtls_oid_get_md_alg
mXa:___stpncpy
wD:__GLOBAL__sub_I_script_sound_cpp
q9:_timeout_getretry
em:__ZN12dmGameObjectL24ResourceReloadedCallbackERKN10dmResource22ResourceReloadedParamsE
cT:__ZN22btVoronoiSimplexSolver28updateClosestVectorAndPointsEv
AFa:__ZN7dmSound12SetParameterEPNS_13SoundInstanceENS_9ParameterERKN10Vectormath3Aos7Vector4E
Oda:_propagatemark
Zo:__ZN12dmGameObject16Script_DeleteAllEP9lua_State
yE:__GLOBAL__sub_I_label_ddf_cpp
H:Math_atan
Jma:__ZN5dmRig13ResetIKTargetEPNS_11RigInstanceEy
zza:__ZN5dmGui22CalculateNodeTransformEPNS_5SceneEPNS_12InternalNodeENS_27CalculateNodeTransformFlagsERN10Vectormath3Aos7Matrix4E
JL:__ZN20btAxisSweep3InternalItE9addHandleERK9btVector3S3_PvssP12btDispatcherS4_
EC:__ZN12dmGameSystemL7GetTextEP9lua_State
l8:__ZN8dmScript11PushVector3EP9lua_StateRKN10Vectormath3Aos7Vector3E
ou:__ZN12dmGameSystem30CompCollectionProxyDeleteWorldERKN12dmGameObject26ComponentDeleteWorldParamsE
BOa:_mbedtls_cipher_reset
VI:__ZN12btIDebugDraw8drawLineERK9btVector3S2_S2_S2_
eL:__ZN11btRigidBody24setCenterOfMassTransformERK11btTransform
Ee:_emscripten_glIsBuffer
wGa:__ZN10dmDeviceJS12DeviceJSOpenEPKN7dmSound16OpenDeviceParamsEPPv
O7:__ZN8dmScriptL13Vector4_indexEP9lua_State
Qta:_VP8GetInfo
Jq:__ZN5dmDDF11FreeMessageEPv
zKa:_mbedtls_ssl_update_handshake_status
Bma:__ZN5dmRig15GetPlaybackRateEPNS_11RigInstanceE
xH:__ZN9dmPhysics18GetLinearDamping2DEPv
ZB:__ZN12dmGameSystem16AcquireResourcesEPN9dmPhysics9Context2DEPN10dmResource16SResourceFactoryEPN15dmGameSystemDDF8TileGridEPNS_16TileGridResourceEPKcb
fEa:__ZN7dmCrashL21Crash_ReleasePreviousEP9lua_State
cka:__ZN11dmExtension8RegisterEPNS_4DescEjPKcPFNS_6ResultEPNS_9AppParamsEES8_PFS4_PNS_6ParamsEESC_SC_PFvSA_PKNS_5EventEE
uX:__ZN16b2ContactManager7DestroyEP9b2Contact
f_a:__ZNK10__cxxabiv117__class_type_info27has_unambiguous_public_baseEPNS_19__dynamic_cast_infoEPvi
d7:__ZN8dmScriptL14Quat_RotationZEP9lua_State
Tqa:__ZN9dmProfile12ProfileScope8EndScopeEv
U2a:_emscripten_glBeginConditionalRender__wrapper
nS:__ZN17btGjkPairDetector26getClosestPointsNonVirtualERKN36btDiscreteCollisionDetectorInterface17ClosestPointInputERNS0_6ResultEP12btIDebugDraw
YUa:_mbedtls_chacha20_free
Xga:_luaB_newproxy
I$a:dynCall_vi
B$a:dynCall_vd
E$a:dynCall_vf
Qx:__GLOBAL__sub_I_comp_sound_cpp
Jza:__ZN5dmGui16GetNodeSpineBoneEPNS_5SceneEjy
gja:_os_tmpname
lN:__ZN21btCollisionDispatcher25dispatchAllCollisionPairsEP22btOverlappingPairCacheRK16btDispatcherInfoP12btDispatcher
yX:__Z14b2PairLessThanRK6b2PairS1_
$X:__ZN7b2World9DrawShapeEP9b2FixtureRK11b2TransformRK7b2Color
it:__ZN10dmResource12NewPreloaderEPNS_16SResourceFactoryEPKc
GXa:_fprintf
Y5:__ZN8dmScriptL6URL_eqEP9lua_State
DIa:_all_or_nothing_int
og:_emscripten_glVertexAttribI3ui
nDa:__ZN5dmGuiL15PushTextMetricsEP9lua_StatePNS_5SceneEyPKcfbff
jK:__ZNK23btDiscreteDynamicsWorld13getConstraintEi
yAa:__ZN5dmGui12GetNodePivotEPNS_5SceneEj
IC:__ZN12dmGameSystem17LuaModelComp_PlayEP9lua_State
Uv:__ZN12dmGameSystem12CompGuiFinalERKN12dmGameObject20ComponentFinalParamsE
Q:Math_fround
zW:__ZN16b2PrismaticJoint11EnableMotorEb
Tea:_luaH_setnum
ura:__ZN12dmStringPool3NewEv
Coa:__ZN11dmHttpCache7GetETagEPNS_5CacheEPKcPcj
YPa:_ecdh_gen_public_restartable
F2a:_emscripten_glGenFramebuffers__wrapper
qFa:__ZN7dmSound8AddGroupEPKc
eW:__Z6b2FreePv
TE:__ZN10dmGraphics14OnWindowResizeEii
Vna:__ZN11dmHashTableIj16ReverseHashEntryE3PutEjRKS0_
dYa:_fclose
z8:_bit_bnot
qha:_luaB_rawequal
cla:__ZN7dmInput13ForEachActiveEPNS_7BindingEPFvyPNS_6ActionEPvES4_
ZIa:_mbedtls_sha1_update_ret
yk:FUNCTION_TABLE_viiiii
Ma:invoke_viiif
gK:__ZN23btDiscreteDynamicsWorld19getConstraintSolverEv
Mg:_gethostbyname
ECa:__ZN5dmGuiL12LuaSetParentEP9lua_State
pfa:_luaL_typerror
hi:_glfwGetJoystickButtons
HQ:__ZN14btCapsuleShapeC2Eff
wba:_opt_set_ip_drop_membersip
ex:__ZN12dmGameSystem16UpdateTransformsEPNS_10ModelWorldE
bDa:__ZN5dmGuiL16LuaSetParticlefxEP9lua_State
Cja:_str_len
vha:_luaB_setmetatable
ei:_glfwCloseWindow
Uga:_luaB_ipairs
HH:__ZN9dmPhysics13CreateJoint2DEPNS_7World2DEPvRKN10Vectormath3Aos6Point3ES2_S7_NS_9JointTypeERKNS_18ConnectJointParamsE
oZ:__ZNK12b2MouseJoint10GetAnchorBEv
gV:__ZNK11b2EdgeShape5CloneEP16b2BlockAllocator
NVa:___stdio_read
ag:_emscripten_glVertexAttrib3fv
_xa:__ZN5dmGui17NewDynamicTextureEPNS_5SceneEyjjN7dmImage4TypeEbPKvj
maa:__GLOBAL__sub_I_sys_ddf_cpp
l7:__ZN8dmScriptL17Matrix4_RotationYEP9lua_State
Uua:_HU4
nFa:__ZN7dmSound9IsPlayingEPNS_13SoundInstanceE
ZQ:__ZNK15btCompoundShape9serializeEPvP12btSerializer
c7:__ZN8dmScriptL14Quat_RotationYEP9lua_State
Nqa:__ZN9dmProfile11GetNameHashEPKcj
TGa:_mbedtls_ctr_drbg_seed
Kc:_emscripten_glClearColor
J3a:_emscripten_glUniform3fv__wrapper
jX:__ZN6b2Body19SynchronizeFixturesEv
Xh:_glTexParameteri
dOa:_mpi_montred
YDa:__ZN7dmCrashL13FinalizeCrashEPN11dmExtension6ParamsE
ZZa:_abort_message
c4:__ZN8dmScript17GetProfilerStringEP9lua_StateiPKcS3_S3_Pj
bk:FUNCTION_TABLE_vdddddd
Bq:__ZN5dmDDF21GetDescriptorFromHashEy
yO:__ZN36btDiscreteCollisionDetectorInterface6ResultD2Ev
fM:__ZNK16btDbvtBroadphase7getAabbEP17btBroadphaseProxyR9btVector3S3_
$Xa:___fdopen
BIa:_if_int
CC:__ZN12dmGameSystem19ScriptLabelRegisterERKNS_16ScriptLibContextE
M3:__ZN8dmScriptL23GetInstanceContextTableEP9lua_State
c6:__ZN8dmScript13Sys_GetConfigEP9lua_State
sna:__ZN12dmConfigFile8GetFloatEPNS_6ConfigEPKcf
oi:_glfwGetMousePos
rJ:__ZN9dmPhysics17OverlapCachePruneEPNS_12OverlapCacheERKNS_21OverlapCachePruneDataE
yta:_CustomSetup
Wv:__ZN12dmGameSystem21RenderParticlefxNodesEPN5dmGui5SceneEPKNS0_11RenderEntryEPKN10Vectormath3Aos7Matrix4EPKfPPKNS0_12StencilScopeEjPv
wK:__ZN23btDiscreteDynamicsWorld12addRigidBodyEP11btRigidBodyss
Gqa:__ZN11dmHashTableImPKcE11SetCapacityEjj
Uw:__ZN12dmObjectPoolIPN12dmGameSystem14ModelComponentEE11SetCapacityEj
pw:__GLOBAL__sub_I_comp_label_cpp
xYa:_scalbn
XGa:_mbedtls_entropy_init
TUa:_ccm_auth_crypt
Gw:__ZN12dmGameSystem16CompLabelGetTextEPKNS_14LabelComponentE
lva:_VP8LAddGreenToBlueAndRed_C
eha:_luaB_assert
ax:__ZN12dmGameSystem20CompModelDeleteWorldERKN12dmGameObject26ComponentDeleteWorldParamsE
CDa:__ZN5dmGuiL16GuiScriptIsValidEP9lua_State
gna:__ZN12dmConfigFileL8ParseKeyEPNS_7ContextEPci
pl:__ZL11AddListenerP9lua_State
W2:__ZN8dmScript8LuaPrintEP9lua_State
r9:_timeout_markstart
LJa:_mbedtls_cipher_get_cipher_mode
nja:_tinsert
VJa:_mbedtls_ssl_flight_transmit
QU:__ZL13btFreeDefaultPv
D7:__ZN8dmScriptL16Matrix4_newindexEP9lua_State
dP:__ZN16btEmptyAlgorithm21calculateTimeOfImpactEP17btCollisionObjectS1_RK16btDispatcherInfoP16btManifoldResult
V7:__ZN8dmScriptL14Vector4_concatEP9lua_State
Zfa:_luaK_code
qDa:__ZN5dmGuiL15NodeProxy_indexEP9lua_State
bY:__ZN7b2World13DrawDebugDataEv
_La:_mbedtls_ssl_config_defaults
B4a:_emscripten_glGetInfoLogARB__wrapper
JW:__ZN15b2RevoluteJoint24SolveVelocityConstraintsERK12b2SolverData
lHa:_mbedtls_pk_free
Qda:_markmt
Cr:__ZN5dmDDF11LoadContext15SetMemoryBufferEPcib
ska:__ZN5dmHID15AddKeyboardCharEPNS_7ContextEi
_T:__ZN33btConvexConcaveCollisionAlgorithmD0Ev
NK:__ZN23btDiscreteDynamicsWorldC2EP12btDispatcherP21btBroadphaseInterfaceP18btConstraintSolverP24btCollisionConfiguration
_V:__ZNK6b2Draw8GetFlagsEv
es:__ZN10dmResource10NewFactoryEPNS_16NewFactoryParamsEPKc
VQa:_mbedtls_ecp_check_pubkey
oFa:__ZN7dmSound4StopEPNS_13SoundInstanceE
QT:__ZN28btCompoundCollisionAlgorithmD0Ev
vqa:__ZN7dmMutex6UnlockEPNS_5MutexE
ZAa:__ZN5dmGui13LuaDeleteNodeEP9lua_State
vo:__ZN12dmGameObject30CreatePropertyContainerFromLuaEPvPhj
I9:_meth_send_7488
he:_emscripten_glGetShaderInfoLog
$Ga:_entropy_gather_internal
Ku:__ZN12dmGameSystem24CompCollisionObjectFinalERKN12dmGameObject20ComponentFinalParamsE
fD:__ZN12dmGameSystemL18Physics_SetGravityEP9lua_State
KV:__ZN14b2PolygonShape3SetEPK6b2Vec2i
_I:__ZN9dmPhysics11DebugDraw3D18reportErrorWarningEPKc
Zh:_glUniform1i
XZ:__ZN12b2WheelJoint4DumpEv
Tza:__ZN5dmGui12SetNodeLayerEPNS_5SceneEjPKc
HAa:__ZN5dmGui25GetNodeFlipbookAnimUVFlipEPNS_5SceneEjRbS2_
Qk:__ZN8dmEngine14OnWindowResizeEPvjj
Bba:_opt_set_ip6_v6only
GIa:_mbedtls_rsa_rsassa_pss_sign
PPa:_mbedtls_dhm_init
mna:__ZN12dmConfigFile4LoadEPKciPS1_PPNS_6ConfigE
vy:__ZN12dmGameSystem25CompSpineModelSetPropertyERKN12dmGameObject26ComponentSetPropertyParamsE
uF:__ZN10dmGraphics19SetVertexBufferDataEmjPKvj
w0:__ZN8dmRender17ClearMaterialTagsEPNS_8MaterialE
oga:_luaK_exp2nextreg
AX:__ZNK13b2DynamicTree5QueryI12b2BroadPhase16b2ContactManagerEEvPT_PT0_RK6b2AABBi
Esa:_inflateInit2_
j$:__ZN11b2GearJoint24SolvePositionConstraintsERK12b2SolverData
Wza:__ZN5dmGui21SetNodeFlipbookCursorEPNS_5SceneEjf
dX:__ZN11b2RopeJoint24SolvePositionConstraintsERK12b2SolverData
Xz:__ZN12dmGameSystem16ResEmitterCreateERKN10dmResource20ResourceCreateParamsE
uFa:__ZN7dmSound12GetGroupHashEjPy
Cu:__ZN12dmGameSystem27CompCollisionObjectNewWorldERKN12dmGameObject23ComponentNewWorldParamsE
P7:__ZN8dmScriptL16Vector4_newindexEP9lua_State
zN:__ZNK17btCollisionObject9serializeEPvP12btSerializer
sI:__ZN9dmPhysics9GetMass3DEPv
gUa:_ssl_write_truncated_hmac_ext
qV:__ZNK11b2GridShape13GetChildCountEv
ln:__ZN12dmGameObject25GetInstanceFromIdentifierEPNS_16CollectionHandleEy
Qy:__ZN12dmGameSystemL18RenderListDispatchERKN8dmRender24RenderListDispatchParamsE_2577
BP:__ZN32btSphereSphereCollisionAlgorithm22getAllContactManifoldsER20btAlignedObjectArrayIP20btPersistentManifoldE
FV:__ZNK14b2PolygonShape9TestPointERK11b2TransformRK6b2Vec2
FK:__ZZN23btDiscreteDynamicsWorld16solveConstraintsER19btContactSolverInfoEN27InplaceSolverIslandCallback13ProcessIslandEPP17btCollisionObjectiPP20btPersistentManifoldii
bZa:_toupper
t0:__ZNSt3__27__sort4IRPFbRKN8dmRender3TagES4_EPS2_EEjT0_S9_S9_S9_T_
lU:__ZN23btConvexConvexAlgorithm10CreateFunc24CreateCollisionAlgorithmER36btCollisionAlgorithmConstructionInfoP17btCollisionObjectS4_
gZ:__ZN16b2PolygonContact6CreateEP9b2FixtureiS1_iP16b2BlockAllocator
g0a:dynCall_viiiiiiiiiii
A5a:_emscripten_glCompressedTexSubImage2D__wrapper
WD:__ZN12dmGameSystem24ScriptSpineModelRegisterERKNS_16ScriptLibContextE
